
lms_ctr_app.elf:     file format elf32-littlenios2
lms_ctr_app.elf
architecture: nios2:r1, flags 0x00000112:
EXEC_P, HAS_SYMS, D_PAGED
start address 0x00100020

Program Header:
    LOAD off    0x00001000 vaddr 0x00100000 paddr 0x00100000 align 2**12
         filesz 0x00000020 memsz 0x00000020 flags r-x
    LOAD off    0x00001020 vaddr 0x00100020 paddr 0x00100020 align 2**12
         filesz 0x00004dc8 memsz 0x00004dc8 flags r-x
    LOAD off    0x00006000 vaddr 0x00200000 paddr 0x00104de8 align 2**12
         filesz 0x00000844 memsz 0x00000a24 flags rw-

Sections:
Idx Name          Size      VMA       LMA       File off  Algn
  0 .entry        00000020  00100000  00100000  00001000  2**5
                  CONTENTS, ALLOC, LOAD, READONLY, CODE
  1 .exceptions   00000000  00100020  00100020  00006844  2**0
                  CONTENTS
  2 .text         00004dc8  00100020  00100020  00001020  2**2
                  CONTENTS, ALLOC, LOAD, READONLY, CODE
  3 .rodata       0000012c  00200000  00104de8  00006000  2**2
                  CONTENTS, ALLOC, LOAD, READONLY, DATA
  4 .rwdata       00000718  0020012c  00104f14  0000612c  2**2
                  CONTENTS, ALLOC, LOAD, DATA, SMALL_DATA
  5 .bss          000001e0  00200844  0010562c  00006844  2**2
                  ALLOC, SMALL_DATA
  6 .onchip_flash_0_data 00000000  0010562c  0010562c  00006844  2**0
                  CONTENTS
  7 .onchip_memory2_0 00000000  00200a24  00200a24  00006844  2**0
                  CONTENTS
  8 .comment      00000023  00000000  00000000  00006844  2**0
                  CONTENTS, READONLY
  9 .debug_aranges 00000270  00000000  00000000  00006868  2**3
                  CONTENTS, READONLY, DEBUGGING
 10 .debug_info   00003a1f  00000000  00000000  00006ad8  2**0
                  CONTENTS, READONLY, DEBUGGING
 11 .debug_abbrev 000012f2  00000000  00000000  0000a4f7  2**0
                  CONTENTS, READONLY, DEBUGGING
 12 .debug_line   0000178c  00000000  00000000  0000b7e9  2**0
                  CONTENTS, READONLY, DEBUGGING
 13 .debug_frame  00000344  00000000  00000000  0000cf78  2**2
                  CONTENTS, READONLY, DEBUGGING
 14 .debug_str    00000f2e  00000000  00000000  0000d2bc  2**0
                  CONTENTS, READONLY, DEBUGGING
 15 .debug_loc    000021a7  00000000  00000000  0000e1ea  2**0
                  CONTENTS, READONLY, DEBUGGING
 16 .debug_alt_sim_info 00000040  00000000  00000000  00010394  2**2
                  CONTENTS, READONLY, DEBUGGING
 17 .debug_ranges 00000270  00000000  00000000  000103d8  2**3
                  CONTENTS, READONLY, DEBUGGING
 18 .thread_model 00000003  00000000  00000000  0001270c  2**0
                  CONTENTS, READONLY
 19 .cpu          00000009  00000000  00000000  0001270f  2**0
                  CONTENTS, READONLY
 20 .qsys         00000001  00000000  00000000  00012718  2**0
                  CONTENTS, READONLY
 21 .simulation_enabled 00000001  00000000  00000000  00012719  2**0
                  CONTENTS, READONLY
 22 .sysid_hash   00000004  00000000  00000000  0001271a  2**0
                  CONTENTS, READONLY
 23 .sysid_base   00000004  00000000  00000000  0001271e  2**0
                  CONTENTS, READONLY
 24 .sysid_time   00000004  00000000  00000000  00012722  2**0
                  CONTENTS, READONLY
 25 .stderr_dev   00000004  00000000  00000000  00012726  2**0
                  CONTENTS, READONLY
 26 .stdin_dev    00000004  00000000  00000000  0001272a  2**0
                  CONTENTS, READONLY
 27 .stdout_dev   00000004  00000000  00000000  0001272e  2**0
                  CONTENTS, READONLY
 28 .sopc_system_name 00000007  00000000  00000000  00012732  2**0
                  CONTENTS, READONLY
 29 .sopcinfo     0007e3ef  00000000  00000000  00012739  2**0
                  CONTENTS, READONLY
SYMBOL TABLE:
00100000 l    d  .entry	00000000 .entry
00100020 l    d  .exceptions	00000000 .exceptions
00100020 l    d  .text	00000000 .text
00200000 l    d  .rodata	00000000 .rodata
0020012c l    d  .rwdata	00000000 .rwdata
00200844 l    d  .bss	00000000 .bss
0010562c l    d  .onchip_flash_0_data	00000000 .onchip_flash_0_data
00200a24 l    d  .onchip_memory2_0	00000000 .onchip_memory2_0
00000000 l    d  .comment	00000000 .comment
00000000 l    d  .debug_aranges	00000000 .debug_aranges
00000000 l    d  .debug_info	00000000 .debug_info
00000000 l    d  .debug_abbrev	00000000 .debug_abbrev
00000000 l    d  .debug_line	00000000 .debug_line
00000000 l    d  .debug_frame	00000000 .debug_frame
00000000 l    d  .debug_str	00000000 .debug_str
00000000 l    d  .debug_loc	00000000 .debug_loc
00000000 l    d  .debug_alt_sim_info	00000000 .debug_alt_sim_info
00000000 l    d  .debug_ranges	00000000 .debug_ranges
00000000 l    df *ABS*	00000000 ../lms_ctr_bsp//obj/HAL/src/crt0.o
00100058 l       .text	00000000 alt_after_alt_main
00000000 l    df *ABS*	00000000 i2c_opencores.c
00000000 l    df *ABS*	00000000 main.c
00000000 l    df *ABS*	00000000 spi_flash_lib.c
00000000 l    df *ABS*	00000000 vctcxo_tamer.c
00101e74 l     F .text	0000008c vctcxo_tamer_set_tune_mode.part.0
00000000 l    df *ABS*	00000000 sf_lround.c
00000000 l    df *ABS*	00000000 lib2-divmod.c
00000000 l    df *ABS*	00000000 lib2-mul.c
00000000 l    df *ABS*	00000000 divsf3.c
00000000 l    df *ABS*	00000000 mulsf3.c
00000000 l    df *ABS*	00000000 fixsfsi.c
00000000 l    df *ABS*	00000000 floatsisf.c
00000000 l    df *ABS*	00000000 libgcc2.c
00000000 l    df *ABS*	00000000 libgcc2.c
00000000 l    df *ABS*	00000000 memcpy.c
00000000 l    df *ABS*	00000000 memset.c
00000000 l    df *ABS*	00000000 alt_load.c
00102ff0 l     F .text	00000068 alt_load_section
00000000 l    df *ABS*	00000000 alt_main.c
00000000 l    df *ABS*	00000000 alt_usleep.c
00000000 l    df *ABS*	00000000 alt_sys_init.c
0020012c l     O .rwdata	00000100 onchip_flash_0
00000000 l    df *ABS*	00000000 altera_avalon_spi.c
00000000 l    df *ABS*	00000000 altera_onchip_flash.c
001033e8 l     F .text	00000034 alt_flash_device_register
00000000 l    df *ABS*	00000000 alt_busy_sleep.c
00000000 l    df *ABS*	00000000 alt_close.c
00104480 l     F .text	0000003c alt_get_errno
00000000 l    df *ABS*	00000000 alt_dcache_flush.c
00000000 l    df *ABS*	00000000 alt_dcache_flush_all.c
00000000 l    df *ABS*	00000000 alt_dev.c
001045dc l     F .text	0000002c alt_dev_null_write
00000000 l    df *ABS*	00000000 alt_dev_llist_insert.c
00104608 l     F .text	0000003c alt_get_errno
00000000 l    df *ABS*	00000000 alt_do_ctors.c
00000000 l    df *ABS*	00000000 alt_do_dtors.c
00000000 l    df *ABS*	00000000 alt_errno.c
00000000 l    df *ABS*	00000000 alt_flash_dev.c
00000000 l    df *ABS*	00000000 alt_icache_flush_all.c
00000000 l    df *ABS*	00000000 alt_release_fd.c
00000000 l    df *ABS*	00000000 altera_nios2_gen2_irq.c
00000000 l    df *ABS*	00000000 alt_find_dev.c
00000000 l    df *ABS*	00000000 atexit.c
00000000 l    df *ABS*	00000000 exit.c
00000000 l    df *ABS*	00000000 impure.c
002003d4 l     O .rwdata	00000424 impure_data
00000000 l    df *ABS*	00000000 int_errno.c
00000000 l    df *ABS*	00000000 memcmp.c
00000000 l    df *ABS*	00000000 strlen.c
00000000 l    df *ABS*	00000000 __atexit.c
00000000 l    df *ABS*	00000000 __call_atexit.c
00000000 l    df *ABS*	00000000 alt_exit.c
001030dc g     F .text	00000060 alt_main
00101b6c g     F .text	00000178 FlashSpiTransfer
00104f14 g       *ABS*	00000000 __flash_rwdata_start
00102090 g     F .text	000000ac lroundf
00200800 g     O .rwdata	00000004 Board_Config_FPGA
00200868 g     O .bss	00000001 block
002008a4 g     O .bss	00000040 glEp0Buffer_Tx
00102318 g     F .text	00000440 .hidden __divsf3
00200804 g     O .rwdata	00000002 converted_val
00200869 g     O .bss	00000001 data_cnt
0020086c g     O .bss	00000004 byte1
00200870 g     O .bss	00000002 dac_data
00102b88 g     F .text	00000070 .hidden __fixsfsi
00104908 g     F .text	00000024 altera_nios2_gen2_irq_init
00100000 g     F .entry	0000000c __reset
001004d0 g     F .text	000000e0 Control_TCXO_ADF
00200854 g     O .bss	00000004 address
00100020 g       *ABS*	00000000 __flash_exceptions_start
002008a0 g     O .bss	00000004 errno
00200898 g     O .bss	00000004 alt_argv
002087f8 g       *ABS*	00000000 _gp
0010313c g     F .text	00000030 usleep
00200872 g     O .bss	00000001 MCU_retries
00104298 g     F .text	00000090 alt_onchip_flash_poll_for_status_write_passed
00200254 g     O .rwdata	00000180 alt_fd_list
00200873 g     O .bss	00000004 sc_brdg_data
0010492c g     F .text	00000090 alt_find_dev
00102d80 g     F .text	00000148 memcpy
00100000 g       *ABS*	00000000 __alt_mem_onchip_flash_0_data
00104de8 g       *ABS*	00000000 __DTOR_END__
001000d0 g     F .text	00000038 I2C_start
00200000 g       *ABS*	00000000 __alt_mem_onchip_memory2_0
00102234 g     F .text	00000064 .hidden __udivsi3
00101e44 g     F .text	00000030 vctcxo_tamer_enable_isr
00104208 g     F .text	00000090 alt_onchip_flash_poll_for_status_erase_passed
002007f8 g     O .rwdata	00000004 CFM0EndAddress
00200848 g     O .bss	00000001 Flash
00200814 g     O .rwdata	00000008 altera_onchip_flash_list
002007fc g     O .rwdata	00000004 CFM0StartAddress
00101aa4 g     F .text	000000c8 CyFxSpiWaitForStatus
001005b0 g     F .text	000000ac rd_dac_val
00104594 g     F .text	00000028 alt_dcache_flush
00103584 g     F .text	00000168 alt_onchip_flash_erase_block
0020082c g     O .rwdata	00000004 alt_max_fd
00200891 g     O .bss	00000001 vctcxo_tamer_ctrl_reg
0020083c g     O .rwdata	00000004 _global_impure_ptr
001001f4 g     F .text	00000014 set_led
00200a24 g       *ABS*	00000000 __bss_end
00200878 g     O .bss	00000004 fpga_data
0020087c g     O .bss	00000001 state
00101f00 g     F .text	00000018 vctcxo_tamer_clear_isr
0020022c g     O .rwdata	00000028 alt_dev_null
00101f28 g     F .text	0000006c vctcxo_tamer_read_count
001045bc g     F .text	00000020 alt_dcache_flush_all
00200844 g       *ABS*	00000000 __ram_rwdata_end
00101de4 g     F .text	00000018 vctcxo_tamer_read
001002f0 g     F .text	00000110 testEEPROM
00200824 g     O .rwdata	00000008 alt_dev_list
00200860 g     O .bss	00000004 flash_page_data_cnt
0020012c g       *ABS*	00000000 __ram_rodata_end
00102298 g     F .text	00000058 .hidden __umodsi3
00100400 g     F .text	00000038 boot_from_flash
00200a24 g       *ABS*	00000000 end
00200880 g     O .bss	00000004 last_portion
00104de8 g       *ABS*	00000000 __CTOR_LIST__
00201000 g       *ABS*	00000000 __alt_stack_pointer
00200884 g     O .bss	00000004 current_portion
00102d1c g     F .text	00000064 .hidden __clzsi2
001034e8 g     F .text	0000009c alt_onchip_flash_get_info
00101a34 g     F .text	00000008 FlashSpiFastRead
00104c34 g     F .text	00000180 __call_exitprocs
00200888 g     O .bss	00000001 test
00100020 g     F .text	0000003c _start
001031ec g     F .text	000001fc alt_avalon_spi_command
001031a4 g     F .text	00000048 alt_sys_init
00102bf8 g     F .text	00000124 .hidden __floatsisf
00104b1c g     F .text	00000118 __register_exitproc
00200810 g     O .rwdata	00000002 vctcxo_trim_dac_value
00101a3c g     F .text	00000068 FlashSpiRead
001022f0 g     F .text	00000028 .hidden __mulsi3
0020012c g       *ABS*	00000000 __ram_rwdata_start
00200000 g       *ABS*	00000000 __ram_rodata_start
00101e14 g     F .text	00000030 vctcxo_tamer_reset_counters
00101fb8 g     F .text	0000009c vctcxo_tamer_isr
00104328 g     F .text	00000158 alt_busy_sleep
00100438 g     F .text	00000098 Control_TCXO_DAC
00104a08 g     F .text	0000007c memcmp
00200a24 g       *ABS*	00000000 __alt_stack_base
00101f18 g     F .text	00000010 vctcxo_tamer_set_tune_mode
0010341c g     F .text	000000cc alt_onchip_flash_read
00200850 g     O .bss	00000004 byte
00104644 g     F .text	000000a4 alt_dev_llist_insert
00200834 g     O .rwdata	00000008 alt_flash_dev_list
00200844 g       *ABS*	00000000 __bss_start
00102ec8 g     F .text	00000128 memset
0010065c g     F .text	00001398 main
0020089c g     O .bss	00000004 alt_envp
001001c0 g     F .text	00000034 getFifoData
00200890 g     O .bss	00000001 spiFastRead
00100208 g     F .text	000000e8 Configure_LM75
00200830 g     O .rwdata	00000004 alt_errno
00104178 g     F .text	00000090 alt_onchip_flash_poll_for_status_to_go_idle
0010213c g     F .text	00000084 .hidden __divsi3
00104de8 g       *ABS*	00000000 __CTOR_END__
00103c9c g     F .text	000004dc altera_onchip_flash_init
00102758 g     F .text	00000430 .hidden __mulsf3
00100108 g     F .text	0000002c I2C_read
00104de8 g       *ABS*	00000000 __flash_rodata_start
00104de8 g       *ABS*	00000000 __DTOR_LIST__
0010316c g     F .text	00000038 alt_irq_init
00104884 g     F .text	00000084 alt_release_fd
00200000 g     O .rodata	00000100 .hidden __clz_tab
00102054 g     F .text	00000014 vctcxo_tamer_init
001049bc g     F .text	00000014 atexit
00200808 g     O .rwdata	00000004 LMS_Ctrl_Packet_Rx
00200840 g     O .rwdata	00000004 _impure_ptr
00200894 g     O .bss	00000004 alt_argc
00104748 g     F .text	00000060 _do_dtors
00101dfc g     F .text	00000018 vctcxo_tamer_write
0020081c g     O .rwdata	00000008 alt_fs_list
001036ec g     F .text	000002d8 alt_onchip_flash_write_block
00200806 g     O .rwdata	00000002 dac_val
00200864 g     O .bss	00000004 flash_page
0010005c g     F .text	00000074 I2C_init
00100020 g       *ABS*	00000000 __ram_exceptions_start
00200844 g       *ABS*	00000000 _edata
001039c4 g     F .text	000002d8 alt_onchip_flash_write
00200a24 g       *ABS*	00000000 _end
001047a8 g     F .text	00000068 alt_flash_open_dev
00100020 g       *ABS*	00000000 __ram_exceptions_end
0020085c g     O .bss	00000004 flash_data_cnt_free
00200889 g     O .bss	00000001 cmd_errors
001049d0 g     F .text	00000038 exit
00104810 g     F .text	00000054 alt_flash_close_dev
001021c0 g     F .text	00000074 .hidden __modsi3
001019f4 g     F .text	00000040 ReverseBitOrder
00201000 g       *ABS*	00000000 __alt_data_end
002008e4 g     O .bss	00000100 flash_page_data
00200844 g     O .bss	00000004 boot_img_en
00104db4 g     F .text	00000034 _exit
00100170 g     F .text	00000050 Check_many_blocks
00104a84 g     F .text	00000098 strlen
00200858 g     O .bss	00000004 flash_data_counter_to_copy
0020080c g     O .rwdata	00000004 LMS_Ctrl_Packet_Tx
00102068 g     F .text	00000028 vctcxo_tamer_dis
00104864 g     F .text	00000020 alt_icache_flush_all
00101f94 g     F .text	00000024 vctcxo_trim_dac_write
0020088c g     O .bss	00000004 fpga_byte
001046e8 g     F .text	00000060 _do_ctors
001044bc g     F .text	000000d8 close
0020084c g     O .bss	00000004 word
00101ce4 g     F .text	00000100 FlashSpiEraseSector
00103058 g     F .text	00000084 alt_load
00100134 g     F .text	0000003c I2C_write
002009e4 g     O .bss	00000040 glEp0Buffer_Rx



Disassembly of section .entry:

00100000 <__reset>:
  100000:	00400434 	movhi	at,16
  100004:	08400814 	ori	at,at,32
  100008:	0800683a 	jmp	at
	...

Disassembly of section .text:

00100020 <_start>:
  100020:	06c00834 	movhi	sp,32
  100024:	dec40014 	ori	sp,sp,4096
  100028:	06800834 	movhi	gp,32
  10002c:	d6a1fe14 	ori	gp,gp,34808
  100030:	00800834 	movhi	r2,32
  100034:	10821114 	ori	r2,r2,2116
  100038:	00c00834 	movhi	r3,32
  10003c:	18c28914 	ori	r3,r3,2596
  100040:	10c00326 	beq	r2,r3,100050 <_start+0x30>
  100044:	10000015 	stw	zero,0(r2)
  100048:	10800104 	addi	r2,r2,4
  10004c:	10fffd36 	bltu	r2,r3,100044 <_gp+0xffef784c>
  100050:	01030580 	call	103058 <alt_load>
  100054:	01030dc0 	call	1030dc <alt_main>

00100058 <alt_after_alt_main>:
  100058:	003fff06 	br	100058 <_gp+0xffef7860>

0010005c <I2C_init>:
  10005c:	defffd04 	addi	sp,sp,-12
  100060:	dc400115 	stw	r17,4(sp)
  100064:	dc000015 	stw	r16,0(sp)
  100068:	2823883a 	mov	r17,r5
  10006c:	2021883a 	mov	r16,r4
  100070:	01400144 	movi	r5,5
  100074:	3009883a 	mov	r4,r6
  100078:	dfc00215 	stw	ra,8(sp)
  10007c:	01022f00 	call	1022f0 <__mulsi3>
  100080:	100b883a 	mov	r5,r2
  100084:	8809883a 	mov	r4,r17
  100088:	01022340 	call	102234 <__udivsi3>
  10008c:	10bfffc4 	addi	r2,r2,-1
  100090:	80c00204 	addi	r3,r16,8
  100094:	18000035 	stwio	zero,0(r3)
  100098:	01000044 	movi	r4,1
  10009c:	81000435 	stwio	r4,16(r16)
  1000a0:	11003fcc 	andi	r4,r2,255
  1000a4:	81000035 	stwio	r4,0(r16)
  1000a8:	1004d23a 	srli	r2,r2,8
  1000ac:	10803fcc 	andi	r2,r2,255
  1000b0:	80800135 	stwio	r2,4(r16)
  1000b4:	00802004 	movi	r2,128
  1000b8:	18800035 	stwio	r2,0(r3)
  1000bc:	dfc00217 	ldw	ra,8(sp)
  1000c0:	dc400117 	ldw	r17,4(sp)
  1000c4:	dc000017 	ldw	r16,0(sp)
  1000c8:	dec00304 	addi	sp,sp,12
  1000cc:	f800283a 	ret

001000d0 <I2C_start>:
  1000d0:	3180004c 	andi	r6,r6,1
  1000d4:	294b883a 	add	r5,r5,r5
  1000d8:	298b883a 	add	r5,r5,r6
  1000dc:	21400335 	stwio	r5,12(r4)
  1000e0:	21000404 	addi	r4,r4,16
  1000e4:	00802404 	movi	r2,144
  1000e8:	20800035 	stwio	r2,0(r4)
  1000ec:	20800037 	ldwio	r2,0(r4)
  1000f0:	1080008c 	andi	r2,r2,2
  1000f4:	103ffd1e 	bne	r2,zero,1000ec <_gp+0xffef78f4>
  1000f8:	20800037 	ldwio	r2,0(r4)
  1000fc:	1004d1fa 	srli	r2,r2,7
  100100:	1080004c 	andi	r2,r2,1
  100104:	f800283a 	ret

00100108 <I2C_read>:
  100108:	20c00404 	addi	r3,r4,16
  10010c:	28000226 	beq	r5,zero,100118 <I2C_read+0x10>
  100110:	00801a04 	movi	r2,104
  100114:	00000106 	br	10011c <I2C_read+0x14>
  100118:	00800804 	movi	r2,32
  10011c:	18800035 	stwio	r2,0(r3)
  100120:	18800037 	ldwio	r2,0(r3)
  100124:	1080008c 	andi	r2,r2,2
  100128:	103ffd1e 	bne	r2,zero,100120 <_gp+0xffef7928>
  10012c:	20800337 	ldwio	r2,12(r4)
  100130:	f800283a 	ret

00100134 <I2C_write>:
  100134:	29403fcc 	andi	r5,r5,255
  100138:	21400335 	stwio	r5,12(r4)
  10013c:	21000404 	addi	r4,r4,16
  100140:	30000226 	beq	r6,zero,10014c <I2C_write+0x18>
  100144:	00801404 	movi	r2,80
  100148:	00000106 	br	100150 <I2C_write+0x1c>
  10014c:	00800404 	movi	r2,16
  100150:	20800035 	stwio	r2,0(r4)
  100154:	20800037 	ldwio	r2,0(r4)
  100158:	1080008c 	andi	r2,r2,2
  10015c:	103ffd1e 	bne	r2,zero,100154 <_gp+0xffef795c>
  100160:	20800037 	ldwio	r2,0(r4)
  100164:	1004d1fa 	srli	r2,r2,7
  100168:	1080004c 	andi	r2,r2,1
  10016c:	f800283a 	ret

00100170 <Check_many_blocks>:
  100170:	defffe04 	addi	sp,sp,-8
  100174:	dc000015 	stw	r16,0(sp)
  100178:	d4200417 	ldw	r16,-32752(gp)
  10017c:	21403fcc 	andi	r5,r4,255
  100180:	01000e04 	movi	r4,56
  100184:	dfc00115 	stw	ra,4(sp)
  100188:	01022340 	call	102234 <__udivsi3>
  10018c:	80c00083 	ldbu	r3,2(r16)
  100190:	10803fcc 	andi	r2,r2,255
  100194:	10c0052e 	bgeu	r2,r3,1001ac <Check_many_blocks+0x3c>
  100198:	d0a00517 	ldw	r2,-32748(gp)
  10019c:	00c00104 	movi	r3,4
  1001a0:	10c00045 	stb	r3,1(r2)
  1001a4:	00800044 	movi	r2,1
  1001a8:	00000106 	br	1001b0 <Check_many_blocks+0x40>
  1001ac:	0005883a 	mov	r2,zero
  1001b0:	dfc00117 	ldw	ra,4(sp)
  1001b4:	dc000017 	ldw	r16,0(sp)
  1001b8:	dec00204 	addi	sp,sp,8
  1001bc:	f800283a 	ret

001001c0 <getFifoData>:
  1001c0:	29403fcc 	andi	r5,r5,255
  1001c4:	280ad0ba 	srli	r5,r5,2
  1001c8:	01800834 	movhi	r6,32
  1001cc:	0005883a 	mov	r2,zero
  1001d0:	31887d04 	addi	r6,r6,8692
  1001d4:	10c03fcc 	andi	r3,r2,255
  1001d8:	19400526 	beq	r3,r5,1001f0 <getFifoData+0x30>
  1001dc:	30c00037 	ldwio	r3,0(r6)
  1001e0:	20c00015 	stw	r3,0(r4)
  1001e4:	10800044 	addi	r2,r2,1
  1001e8:	21000104 	addi	r4,r4,4
  1001ec:	003ff906 	br	1001d4 <_gp+0xffef79dc>
  1001f0:	f800283a 	ret

001001f4 <set_led>:
  1001f4:	00800834 	movhi	r2,32
  1001f8:	21003fcc 	andi	r4,r4,255
  1001fc:	10887404 	addi	r2,r2,8656
  100200:	11000035 	stwio	r4,0(r2)
  100204:	f800283a 	ret

00100208 <Configure_LM75>:
  100208:	defffc04 	addi	sp,sp,-16
  10020c:	dc000015 	stw	r16,0(sp)
  100210:	04000834 	movhi	r16,32
  100214:	84086004 	addi	r16,r16,8576
  100218:	dc800215 	stw	r18,8(sp)
  10021c:	04801204 	movi	r18,72
  100220:	900b883a 	mov	r5,r18
  100224:	8009883a 	mov	r4,r16
  100228:	000d883a 	mov	r6,zero
  10022c:	dfc00315 	stw	ra,12(sp)
  100230:	dc400115 	stw	r17,4(sp)
  100234:	01000d00 	call	1000d0 <I2C_start>
  100238:	04400044 	movi	r17,1
  10023c:	880b883a 	mov	r5,r17
  100240:	8009883a 	mov	r4,r16
  100244:	000d883a 	mov	r6,zero
  100248:	01001340 	call	100134 <I2C_write>
  10024c:	880d883a 	mov	r6,r17
  100250:	8009883a 	mov	r4,r16
  100254:	01400104 	movi	r5,4
  100258:	01001340 	call	100134 <I2C_write>
  10025c:	900b883a 	mov	r5,r18
  100260:	8009883a 	mov	r4,r16
  100264:	000d883a 	mov	r6,zero
  100268:	01000d00 	call	1000d0 <I2C_start>
  10026c:	8009883a 	mov	r4,r16
  100270:	000d883a 	mov	r6,zero
  100274:	01400084 	movi	r5,2
  100278:	01001340 	call	100134 <I2C_write>
  10027c:	8009883a 	mov	r4,r16
  100280:	000d883a 	mov	r6,zero
  100284:	01400b44 	movi	r5,45
  100288:	01001340 	call	100134 <I2C_write>
  10028c:	880d883a 	mov	r6,r17
  100290:	8009883a 	mov	r4,r16
  100294:	000b883a 	mov	r5,zero
  100298:	01001340 	call	100134 <I2C_write>
  10029c:	900b883a 	mov	r5,r18
  1002a0:	8009883a 	mov	r4,r16
  1002a4:	000d883a 	mov	r6,zero
  1002a8:	01000d00 	call	1000d0 <I2C_start>
  1002ac:	8009883a 	mov	r4,r16
  1002b0:	000d883a 	mov	r6,zero
  1002b4:	014000c4 	movi	r5,3
  1002b8:	01001340 	call	100134 <I2C_write>
  1002bc:	8009883a 	mov	r4,r16
  1002c0:	000d883a 	mov	r6,zero
  1002c4:	01400dc4 	movi	r5,55
  1002c8:	01001340 	call	100134 <I2C_write>
  1002cc:	880d883a 	mov	r6,r17
  1002d0:	000b883a 	mov	r5,zero
  1002d4:	8009883a 	mov	r4,r16
  1002d8:	dfc00317 	ldw	ra,12(sp)
  1002dc:	dc800217 	ldw	r18,8(sp)
  1002e0:	dc400117 	ldw	r17,4(sp)
  1002e4:	dc000017 	ldw	r16,0(sp)
  1002e8:	dec00404 	addi	sp,sp,16
  1002ec:	01001341 	jmpi	100134 <I2C_write>

001002f0 <testEEPROM>:
  1002f0:	defffc04 	addi	sp,sp,-16
  1002f4:	dc000015 	stw	r16,0(sp)
  1002f8:	04000834 	movhi	r16,32
  1002fc:	84086004 	addi	r16,r16,8576
  100300:	dc800215 	stw	r18,8(sp)
  100304:	04801404 	movi	r18,80
  100308:	900b883a 	mov	r5,r18
  10030c:	8009883a 	mov	r4,r16
  100310:	000d883a 	mov	r6,zero
  100314:	dfc00315 	stw	ra,12(sp)
  100318:	dc400115 	stw	r17,4(sp)
  10031c:	01000d00 	call	1000d0 <I2C_start>
  100320:	8009883a 	mov	r4,r16
  100324:	000d883a 	mov	r6,zero
  100328:	000b883a 	mov	r5,zero
  10032c:	01001340 	call	100134 <I2C_write>
  100330:	8009883a 	mov	r4,r16
  100334:	000d883a 	mov	r6,zero
  100338:	000b883a 	mov	r5,zero
  10033c:	04400044 	movi	r17,1
  100340:	01001340 	call	100134 <I2C_write>
  100344:	880d883a 	mov	r6,r17
  100348:	900b883a 	mov	r5,r18
  10034c:	8009883a 	mov	r4,r16
  100350:	01000d00 	call	1000d0 <I2C_start>
  100354:	880b883a 	mov	r5,r17
  100358:	8009883a 	mov	r4,r16
  10035c:	01001080 	call	100108 <I2C_read>
  100360:	900b883a 	mov	r5,r18
  100364:	8009883a 	mov	r4,r16
  100368:	000d883a 	mov	r6,zero
  10036c:	01000d00 	call	1000d0 <I2C_start>
  100370:	8009883a 	mov	r4,r16
  100374:	000d883a 	mov	r6,zero
  100378:	000b883a 	mov	r5,zero
  10037c:	01001340 	call	100134 <I2C_write>
  100380:	880b883a 	mov	r5,r17
  100384:	8009883a 	mov	r4,r16
  100388:	000d883a 	mov	r6,zero
  10038c:	01001340 	call	100134 <I2C_write>
  100390:	880d883a 	mov	r6,r17
  100394:	8009883a 	mov	r4,r16
  100398:	01401684 	movi	r5,90
  10039c:	01001340 	call	100134 <I2C_write>
  1003a0:	900b883a 	mov	r5,r18
  1003a4:	8009883a 	mov	r4,r16
  1003a8:	000d883a 	mov	r6,zero
  1003ac:	01000d00 	call	1000d0 <I2C_start>
  1003b0:	8009883a 	mov	r4,r16
  1003b4:	000d883a 	mov	r6,zero
  1003b8:	000b883a 	mov	r5,zero
  1003bc:	01001340 	call	100134 <I2C_write>
  1003c0:	880b883a 	mov	r5,r17
  1003c4:	8009883a 	mov	r4,r16
  1003c8:	000d883a 	mov	r6,zero
  1003cc:	01001340 	call	100134 <I2C_write>
  1003d0:	900b883a 	mov	r5,r18
  1003d4:	8009883a 	mov	r4,r16
  1003d8:	880d883a 	mov	r6,r17
  1003dc:	01000d00 	call	1000d0 <I2C_start>
  1003e0:	880b883a 	mov	r5,r17
  1003e4:	8009883a 	mov	r4,r16
  1003e8:	dfc00317 	ldw	ra,12(sp)
  1003ec:	dc800217 	ldw	r18,8(sp)
  1003f0:	dc400117 	ldw	r17,4(sp)
  1003f4:	dc000017 	ldw	r16,0(sp)
  1003f8:	dec00404 	addi	sp,sp,16
  1003fc:	01001081 	jmpi	100108 <I2C_read>

00100400 <boot_from_flash>:
  100400:	00800834 	movhi	r2,32
  100404:	10886904 	addi	r2,r2,8612
  100408:	00c000c4 	movi	r3,3
  10040c:	10c00035 	stwio	r3,0(r2)
  100410:	01000834 	movhi	r4,32
  100414:	21086b04 	addi	r4,r4,8620
  100418:	00800044 	movi	r2,1
  10041c:	20c00037 	ldwio	r3,0(r4)
  100420:	18bffe26 	beq	r3,r2,10041c <_gp+0xffef7c24>
  100424:	00800834 	movhi	r2,32
  100428:	10886804 	addi	r2,r2,8608
  10042c:	00c00044 	movi	r3,1
  100430:	10c00035 	stwio	r3,0(r2)
  100434:	f800283a 	ret

00100438 <Control_TCXO_DAC>:
  100438:	defffa04 	addi	sp,sp,-24
  10043c:	dfc00515 	stw	ra,20(sp)
  100440:	21003fcc 	andi	r4,r4,255
  100444:	20000f1e 	bne	r4,zero,100484 <Control_TCXO_DAC+0x4c>
  100448:	01000834 	movhi	r4,32
  10044c:	008000c4 	movi	r2,3
  100450:	d8000215 	stw	zero,8(sp)
  100454:	d8000115 	stw	zero,4(sp)
  100458:	d8000015 	stw	zero,0(sp)
  10045c:	d9c00404 	addi	r7,sp,16
  100460:	018000c4 	movi	r6,3
  100464:	000b883a 	mov	r5,zero
  100468:	21084804 	addi	r4,r4,8480
  10046c:	d8800405 	stb	r2,16(sp)
  100470:	d8000445 	stb	zero,17(sp)
  100474:	d8000485 	stb	zero,18(sp)
  100478:	01031ec0 	call	1031ec <alt_avalon_spi_command>
  10047c:	d8800315 	stw	r2,12(sp)
  100480:	00001006 	br	1004c4 <Control_TCXO_DAC+0x8c>
  100484:	2880000b 	ldhu	r2,0(r5)
  100488:	01000834 	movhi	r4,32
  10048c:	d8000215 	stw	zero,8(sp)
  100490:	1006d23a 	srli	r3,r2,8
  100494:	d8000115 	stw	zero,4(sp)
  100498:	d8000015 	stw	zero,0(sp)
  10049c:	d9c00304 	addi	r7,sp,12
  1004a0:	018000c4 	movi	r6,3
  1004a4:	000b883a 	mov	r5,zero
  1004a8:	21084804 	addi	r4,r4,8480
  1004ac:	d8000305 	stb	zero,12(sp)
  1004b0:	d8c00345 	stb	r3,13(sp)
  1004b4:	d8800385 	stb	r2,14(sp)
  1004b8:	d0a0060d 	sth	r2,-32744(gp)
  1004bc:	01031ec0 	call	1031ec <alt_avalon_spi_command>
  1004c0:	d8800415 	stw	r2,16(sp)
  1004c4:	dfc00517 	ldw	ra,20(sp)
  1004c8:	dec00604 	addi	sp,sp,24
  1004cc:	f800283a 	ret

001004d0 <Control_TCXO_ADF>:
  1004d0:	defff604 	addi	sp,sp,-40
  1004d4:	dfc00915 	stw	ra,36(sp)
  1004d8:	dc400815 	stw	r17,32(sp)
  1004dc:	dc000715 	stw	r16,28(sp)
  1004e0:	21003fcc 	andi	r4,r4,255
  1004e4:	2000231e 	bne	r4,zero,100574 <Control_TCXO_ADF+0xa4>
  1004e8:	00c007c4 	movi	r3,31
  1004ec:	00bfe044 	movi	r2,-127
  1004f0:	d8c00305 	stb	r3,12(sp)
  1004f4:	d8800345 	stb	r2,13(sp)
  1004f8:	d8c003c5 	stb	r3,15(sp)
  1004fc:	d8800405 	stb	r2,16(sp)
  100500:	00fffd04 	movi	r3,-12
  100504:	00bffc84 	movi	r2,-14
  100508:	013ffcc4 	movi	r4,-13
  10050c:	d8800445 	stb	r2,17(sp)
  100510:	d8c00505 	stb	r3,20(sp)
  100514:	00800044 	movi	r2,1
  100518:	00ffe004 	movi	r3,-128
  10051c:	d9000385 	stb	r4,14(sp)
  100520:	d8000485 	stb	zero,18(sp)
  100524:	d88004c5 	stb	r2,19(sp)
  100528:	d8800545 	stb	r2,21(sp)
  10052c:	d8c00585 	stb	r3,22(sp)
  100530:	d88005c5 	stb	r2,23(sp)
  100534:	0021883a 	mov	r16,zero
  100538:	04400304 	movi	r17,12
  10053c:	d8800304 	addi	r2,sp,12
  100540:	01000834 	movhi	r4,32
  100544:	140f883a 	add	r7,r2,r16
  100548:	d8000215 	stw	zero,8(sp)
  10054c:	d8000115 	stw	zero,4(sp)
  100550:	d8000015 	stw	zero,0(sp)
  100554:	018000c4 	movi	r6,3
  100558:	01400084 	movi	r5,2
  10055c:	21085004 	addi	r4,r4,8512
  100560:	01031ec0 	call	1031ec <alt_avalon_spi_command>
  100564:	d8800615 	stw	r2,24(sp)
  100568:	840000c4 	addi	r16,r16,3
  10056c:	847ff31e 	bne	r16,r17,10053c <_gp+0xffef7d44>
  100570:	00000a06 	br	10059c <Control_TCXO_ADF+0xcc>
  100574:	01000834 	movhi	r4,32
  100578:	280f883a 	mov	r7,r5
  10057c:	d8000215 	stw	zero,8(sp)
  100580:	d8000115 	stw	zero,4(sp)
  100584:	d8000015 	stw	zero,0(sp)
  100588:	018000c4 	movi	r6,3
  10058c:	01400084 	movi	r5,2
  100590:	21085004 	addi	r4,r4,8512
  100594:	01031ec0 	call	1031ec <alt_avalon_spi_command>
  100598:	d8800315 	stw	r2,12(sp)
  10059c:	dfc00917 	ldw	ra,36(sp)
  1005a0:	dc400817 	ldw	r17,32(sp)
  1005a4:	dc000717 	ldw	r16,28(sp)
  1005a8:	dec00a04 	addi	sp,sp,40
  1005ac:	f800283a 	ret

001005b0 <rd_dac_val>:
  1005b0:	defffc04 	addi	sp,sp,-16
  1005b4:	dc000015 	stw	r16,0(sp)
  1005b8:	04000834 	movhi	r16,32
  1005bc:	84086004 	addi	r16,r16,8576
  1005c0:	dc400115 	stw	r17,4(sp)
  1005c4:	04401404 	movi	r17,80
  1005c8:	dc800215 	stw	r18,8(sp)
  1005cc:	880b883a 	mov	r5,r17
  1005d0:	2025883a 	mov	r18,r4
  1005d4:	000d883a 	mov	r6,zero
  1005d8:	8009883a 	mov	r4,r16
  1005dc:	dfc00315 	stw	ra,12(sp)
  1005e0:	01000d00 	call	1000d0 <I2C_start>
  1005e4:	8009883a 	mov	r4,r16
  1005e8:	000d883a 	mov	r6,zero
  1005ec:	000b883a 	mov	r5,zero
  1005f0:	01001340 	call	100134 <I2C_write>
  1005f4:	91403fcc 	andi	r5,r18,255
  1005f8:	8009883a 	mov	r4,r16
  1005fc:	000d883a 	mov	r6,zero
  100600:	01001340 	call	100134 <I2C_write>
  100604:	04800044 	movi	r18,1
  100608:	900d883a 	mov	r6,r18
  10060c:	880b883a 	mov	r5,r17
  100610:	8009883a 	mov	r4,r16
  100614:	01000d00 	call	1000d0 <I2C_start>
  100618:	8009883a 	mov	r4,r16
  10061c:	000b883a 	mov	r5,zero
  100620:	01001080 	call	100108 <I2C_read>
  100624:	900b883a 	mov	r5,r18
  100628:	8009883a 	mov	r4,r16
  10062c:	1023883a 	mov	r17,r2
  100630:	01001080 	call	100108 <I2C_read>
  100634:	10803fcc 	andi	r2,r2,255
  100638:	1004923a 	slli	r2,r2,8
  10063c:	8c403fcc 	andi	r17,r17,255
  100640:	1444b03a 	or	r2,r2,r17
  100644:	dfc00317 	ldw	ra,12(sp)
  100648:	dc800217 	ldw	r18,8(sp)
  10064c:	dc400117 	ldw	r17,4(sp)
  100650:	dc000017 	ldw	r16,0(sp)
  100654:	dec00404 	addi	sp,sp,16
  100658:	f800283a 	ret

0010065c <main>:
  10065c:	deffe904 	addi	sp,sp,-92
  100660:	dc400e15 	stw	r17,56(sp)
  100664:	04400834 	movhi	r17,32
  100668:	dfc01615 	stw	ra,88(sp)
  10066c:	df001515 	stw	fp,84(sp)
  100670:	ddc01415 	stw	r23,80(sp)
  100674:	dd801315 	stw	r22,76(sp)
  100678:	dd401215 	stw	r21,72(sp)
  10067c:	dd001115 	stw	r20,68(sp)
  100680:	dcc01015 	stw	r19,64(sp)
  100684:	dc800f15 	stw	r18,60(sp)
  100688:	dc000d15 	stw	r16,52(sp)
  10068c:	d8000305 	stb	zero,12(sp)
  100690:	8c485804 	addi	r17,r17,8544
  100694:	00800184 	movi	r2,6
  100698:	88800035 	stwio	r2,0(r17)
  10069c:	008001c4 	movi	r2,7
  1006a0:	88800035 	stwio	r2,0(r17)
  1006a4:	018000b4 	movhi	r6,2
  1006a8:	01407574 	movhi	r5,469
  1006ac:	01000834 	movhi	r4,32
  1006b0:	31a1a804 	addi	r6,r6,-31072
  1006b4:	29700004 	addi	r5,r5,-16384
  1006b8:	21086004 	addi	r4,r4,8576
  1006bc:	010005c0 	call	10005c <I2C_init>
  1006c0:	01000404 	movi	r4,16
  1006c4:	01005b00 	call	1005b0 <rd_dac_val>
  1006c8:	113fffcc 	andi	r4,r2,65535
  1006cc:	00ffffd4 	movui	r3,65535
  1006d0:	20c0011e 	bne	r4,r3,1006d8 <main+0x7c>
  1006d4:	009dfe84 	movi	r2,30714
  1006d8:	000b883a 	mov	r5,zero
  1006dc:	0009883a 	mov	r4,zero
  1006e0:	d0a0038d 	sth	r2,-32754(gp)
  1006e4:	01004d00 	call	1004d0 <Control_TCXO_ADF>
  1006e8:	d1600384 	addi	r5,gp,-32754
  1006ec:	01000044 	movi	r4,1
  1006f0:	01004380 	call	100438 <Control_TCXO_DAC>
  1006f4:	05000834 	movhi	r20,32
  1006f8:	01002080 	call	100208 <Configure_LM75>
  1006fc:	0025883a 	mov	r18,zero
  100700:	0027883a 	mov	r19,zero
  100704:	0021883a 	mov	r16,zero
  100708:	0005883a 	mov	r2,zero
  10070c:	002b883a 	mov	r21,zero
  100710:	a5088004 	addi	r20,r20,8704
  100714:	01000834 	movhi	r4,32
  100718:	21087804 	addi	r4,r4,8672
  10071c:	20c00023 	ldbuio	r3,0(r4)
  100720:	18c0004c 	andi	r3,r3,1
  100724:	d8c00b15 	stw	r3,44(sp)
  100728:	10803fcc 	andi	r2,r2,255
  10072c:	18c03fcc 	andi	r3,r3,255
  100730:	10c00226 	beq	r2,r3,10073c <main+0xe0>
  100734:	1800011e 	bne	r3,zero,10073c <main+0xe0>
  100738:	01004000 	call	100400 <boot_from_flash>
  10073c:	05c00834 	movhi	r23,32
  100740:	bdc87004 	addi	r23,r23,8640
  100744:	b8800023 	ldbuio	r2,0(r23)
  100748:	1080008c 	andi	r2,r2,2
  10074c:	10000226 	beq	r2,zero,100758 <main+0xfc>
  100750:	d9000304 	addi	r4,sp,12
  100754:	0101fb80 	call	101fb8 <vctcxo_tamer_isr>
  100758:	00800834 	movhi	r2,32
  10075c:	10887004 	addi	r2,r2,8640
  100760:	10800023 	ldbuio	r2,0(r2)
  100764:	1080004c 	andi	r2,r2,1
  100768:	d8800c15 	stw	r2,48(sp)
  10076c:	ad403fcc 	andi	r21,r21,255
  100770:	15803fcc 	andi	r22,r2,255
  100774:	ad800726 	beq	r21,r22,100794 <main+0x138>
  100778:	b0000326 	beq	r22,zero,100788 <main+0x12c>
  10077c:	01020540 	call	102054 <vctcxo_tamer_init>
  100780:	dd800305 	stb	r22,12(sp)
  100784:	00000306 	br	100794 <main+0x138>
  100788:	01020680 	call	102068 <vctcxo_tamer_dis>
  10078c:	0021883a 	mov	r16,zero
  100790:	d8000305 	stb	zero,12(sp)
  100794:	d8800303 	ldbu	r2,12(sp)
  100798:	10803fcc 	andi	r2,r2,255
  10079c:	10007126 	beq	r2,zero,100964 <main+0x308>
  1007a0:	d8000305 	stb	zero,12(sp)
  1007a4:	05400044 	movi	r21,1
  1007a8:	85401026 	beq	r16,r21,1007ec <main+0x190>
  1007ac:	80000526 	beq	r16,zero,1007c4 <main+0x168>
  1007b0:	00800084 	movi	r2,2
  1007b4:	80801826 	beq	r16,r2,100818 <main+0x1bc>
  1007b8:	008000c4 	movi	r2,3
  1007bc:	80803426 	beq	r16,r2,100890 <main+0x234>
  1007c0:	00006406 	br	100954 <main+0x2f8>
  1007c4:	04064e04 	movi	r16,6456
  1007c8:	800b883a 	mov	r5,r16
  1007cc:	01000204 	movi	r4,8
  1007d0:	0101f940 	call	101f94 <vctcxo_trim_dac_write>
  1007d4:	d1600384 	addi	r5,gp,-32754
  1007d8:	a809883a 	mov	r4,r21
  1007dc:	d420038d 	sth	r16,-32754(gp)
  1007e0:	01004380 	call	100438 <Control_TCXO_DAC>
  1007e4:	a821883a 	mov	r16,r21
  1007e8:	00005a06 	br	100954 <main+0x2f8>
  1007ec:	0178bcd4 	movui	r5,58099
  1007f0:	01000204 	movi	r4,8
  1007f4:	dcc00417 	ldw	r19,16(sp)
  1007f8:	0101f940 	call	101f94 <vctcxo_trim_dac_write>
  1007fc:	00b8bcc4 	movi	r2,-7437
  100800:	8009883a 	mov	r4,r16
  100804:	d1600384 	addi	r5,gp,-32754
  100808:	d0a0038d 	sth	r2,-32754(gp)
  10080c:	04000084 	movi	r16,2
  100810:	01004380 	call	100438 <Control_TCXO_DAC>
  100814:	00004f06 	br	100954 <main+0x2f8>
  100818:	a80b883a 	mov	r5,r21
  10081c:	01000704 	movi	r4,28
  100820:	0101dfc0 	call	101dfc <vctcxo_tamer_write>
  100824:	d9000417 	ldw	r4,16(sp)
  100828:	24c9c83a 	sub	r4,r4,r19
  10082c:	0102bf80 	call	102bf8 <__floatsisf>
  100830:	0111d2b4 	movhi	r4,18250
  100834:	100b883a 	mov	r5,r2
  100838:	212ec004 	addi	r4,r4,-17664
  10083c:	01023180 	call	102318 <__divsf3>
  100840:	9809883a 	mov	r4,r19
  100844:	1021883a 	mov	r16,r2
  100848:	1025883a 	mov	r18,r2
  10084c:	0102bf80 	call	102bf8 <__floatsisf>
  100850:	800b883a 	mov	r5,r16
  100854:	1009883a 	mov	r4,r2
  100858:	01027580 	call	102758 <__mulsf3>
  10085c:	1009883a 	mov	r4,r2
  100860:	01020900 	call	102090 <lroundf>
  100864:	04064e04 	movi	r16,6456
  100868:	80a1c83a 	sub	r16,r16,r2
  10086c:	817fffcc 	andi	r5,r16,65535
  100870:	01000204 	movi	r4,8
  100874:	0101f940 	call	101f94 <vctcxo_trim_dac_write>
  100878:	d1600384 	addi	r5,gp,-32754
  10087c:	a809883a 	mov	r4,r21
  100880:	d420038d 	sth	r16,-32754(gp)
  100884:	01004380 	call	100438 <Control_TCXO_DAC>
  100888:	040000c4 	movi	r16,3
  10088c:	00003106 	br	100954 <main+0x2f8>
  100890:	d8800503 	ldbu	r2,20(sp)
  100894:	10803fcc 	andi	r2,r2,255
  100898:	10000926 	beq	r2,zero,1008c0 <main+0x264>
  10089c:	d9000417 	ldw	r4,16(sp)
  1008a0:	d5a0060b 	ldhu	r22,-32744(gp)
  1008a4:	0102bf80 	call	102bf8 <__floatsisf>
  1008a8:	900b883a 	mov	r5,r18
  1008ac:	1009883a 	mov	r4,r2
  1008b0:	01027580 	call	102758 <__mulsf3>
  1008b4:	1009883a 	mov	r4,r2
  1008b8:	01020900 	call	102090 <lroundf>
  1008bc:	00001b06 	br	10092c <main+0x2d0>
  1008c0:	d8800703 	ldbu	r2,28(sp)
  1008c4:	10803fcc 	andi	r2,r2,255
  1008c8:	10000a26 	beq	r2,zero,1008f4 <main+0x298>
  1008cc:	d9000617 	ldw	r4,24(sp)
  1008d0:	d5a0060b 	ldhu	r22,-32744(gp)
  1008d4:	0102bf80 	call	102bf8 <__floatsisf>
  1008d8:	900b883a 	mov	r5,r18
  1008dc:	1009883a 	mov	r4,r2
  1008e0:	01027580 	call	102758 <__mulsf3>
  1008e4:	1009883a 	mov	r4,r2
  1008e8:	01020900 	call	102090 <lroundf>
  1008ec:	01400284 	movi	r5,10
  1008f0:	00000c06 	br	100924 <main+0x2c8>
  1008f4:	d8800903 	ldbu	r2,36(sp)
  1008f8:	10803fcc 	andi	r2,r2,255
  1008fc:	10001526 	beq	r2,zero,100954 <main+0x2f8>
  100900:	d9000817 	ldw	r4,32(sp)
  100904:	d5a0060b 	ldhu	r22,-32744(gp)
  100908:	0102bf80 	call	102bf8 <__floatsisf>
  10090c:	900b883a 	mov	r5,r18
  100910:	1009883a 	mov	r4,r2
  100914:	01027580 	call	102758 <__mulsf3>
  100918:	1009883a 	mov	r4,r2
  10091c:	01020900 	call	102090 <lroundf>
  100920:	01401904 	movi	r5,100
  100924:	1009883a 	mov	r4,r2
  100928:	010213c0 	call	10213c <__divsi3>
  10092c:	b085c83a 	sub	r2,r22,r2
  100930:	117fffcc 	andi	r5,r2,65535
  100934:	01000204 	movi	r4,8
  100938:	d0a0060d 	sth	r2,-32744(gp)
  10093c:	0101f940 	call	101f94 <vctcxo_trim_dac_write>
  100940:	d0a0060b 	ldhu	r2,-32744(gp)
  100944:	d1600384 	addi	r5,gp,-32754
  100948:	a809883a 	mov	r4,r21
  10094c:	d0a0038d 	sth	r2,-32754(gp)
  100950:	01004380 	call	100438 <Control_TCXO_DAC>
  100954:	0009883a 	mov	r4,zero
  100958:	0101e140 	call	101e14 <vctcxo_tamer_reset_counters>
  10095c:	01000044 	movi	r4,1
  100960:	0101e440 	call	101e44 <vctcxo_tamer_enable_isr>
  100964:	00c00834 	movhi	r3,32
  100968:	18c87e04 	addi	r3,r3,8696
  10096c:	18800037 	ldwio	r2,0(r3)
  100970:	d8800a15 	stw	r2,40(sp)
  100974:	d8800a17 	ldw	r2,40(sp)
  100978:	1080004c 	andi	r2,r2,1
  10097c:	10000526 	beq	r2,zero,100994 <main+0x338>
  100980:	d8c00b17 	ldw	r3,44(sp)
  100984:	ddc00c17 	ldw	r23,48(sp)
  100988:	1805883a 	mov	r2,r3
  10098c:	b82b883a 	mov	r21,r23
  100990:	003f6006 	br	100714 <_gp+0xffef7f1c>
  100994:	01000834 	movhi	r4,32
  100998:	01401004 	movi	r5,64
  10099c:	21027904 	addi	r4,r4,2532
  1009a0:	01001c00 	call	1001c0 <getFifoData>
  1009a4:	01000834 	movhi	r4,32
  1009a8:	000b883a 	mov	r5,zero
  1009ac:	21022904 	addi	r4,r4,2212
  1009b0:	01801004 	movi	r6,64
  1009b4:	0102ec80 	call	102ec8 <memset>
  1009b8:	d1600417 	ldw	r5,-32752(gp)
  1009bc:	d0202445 	stb	zero,-32623(gp)
  1009c0:	d0a00517 	ldw	r2,-32748(gp)
  1009c4:	28c00003 	ldbu	r3,0(r5)
  1009c8:	054000c4 	movi	r21,3
  1009cc:	010014c4 	movi	r4,83
  1009d0:	10c00005 	stb	r3,0(r2)
  1009d4:	28c00083 	ldbu	r3,2(r5)
  1009d8:	10c00085 	stb	r3,2(r2)
  1009dc:	28c000c3 	ldbu	r3,3(r5)
  1009e0:	15400045 	stb	r21,1(r2)
  1009e4:	10c000c5 	stb	r3,3(r2)
  1009e8:	28c00003 	ldbu	r3,0(r5)
  1009ec:	19029226 	beq	r3,r4,101438 <main+0xddc>
  1009f0:	20c00e36 	bltu	r4,r3,100a2c <main+0x3d0>
  1009f4:	01000844 	movi	r4,33
  1009f8:	19004926 	beq	r3,r4,100b20 <main+0x4c4>
  1009fc:	20c00436 	bltu	r4,r3,100a10 <main+0x3b4>
  100a00:	18001c26 	beq	r3,zero,100a74 <main+0x418>
  100a04:	01000804 	movi	r4,32
  100a08:	19002a26 	beq	r3,r4,100ab4 <main+0x458>
  100a0c:	0003ed06 	br	1019c4 <main+0x1368>
  100a10:	01000b04 	movi	r4,44
  100a14:	19032326 	beq	r3,r4,1016a4 <main+0x1048>
  100a18:	01000c44 	movi	r4,49
  100a1c:	1900c926 	beq	r3,r4,100d44 <main+0x6e8>
  100a20:	01000884 	movi	r4,34
  100a24:	1903e71e 	bne	r3,r4,1019c4 <main+0x1368>
  100a28:	00005d06 	br	100ba0 <main+0x544>
  100a2c:	01001844 	movi	r4,97
  100a30:	19025926 	beq	r3,r4,101398 <main+0xd3c>
  100a34:	20c00536 	bltu	r4,r3,100a4c <main+0x3f0>
  100a38:	01001544 	movi	r4,85
  100a3c:	19007b26 	beq	r3,r4,100c2c <main+0x5d0>
  100a40:	01001584 	movi	r4,86
  100a44:	19009926 	beq	r3,r4,100cac <main+0x650>
  100a48:	0003de06 	br	1019c4 <main+0x1368>
  100a4c:	01002304 	movi	r4,140
  100a50:	1900d726 	beq	r3,r4,100db0 <main+0x754>
  100a54:	01002344 	movi	r4,141
  100a58:	19018d26 	beq	r3,r4,101090 <main+0xa34>
  100a5c:	01001884 	movi	r4,98
  100a60:	1903d81e 	bne	r3,r4,1019c4 <main+0x1368>
  100a64:	d0201c05 	stb	zero,-32656(gp)
  100a68:	05400044 	movi	r21,1
  100a6c:	05801404 	movi	r22,80
  100a70:	00020906 	br	101298 <main+0xc3c>
  100a74:	00c00184 	movi	r3,6
  100a78:	10c00205 	stb	r3,8(r2)
  100a7c:	00c00444 	movi	r3,17
  100a80:	10c00245 	stb	r3,9(r2)
  100a84:	00c00044 	movi	r3,1
  100a88:	10c00285 	stb	r3,10(r2)
  100a8c:	100002c5 	stb	zero,11(r2)
  100a90:	10c00305 	stb	r3,12(r2)
  100a94:	10c00045 	stb	r3,1(r2)
  100a98:	01800834 	movhi	r6,32
  100a9c:	01000834 	movhi	r4,32
  100aa0:	0005883a 	mov	r2,zero
  100aa4:	31822904 	addi	r6,r6,2212
  100aa8:	21087c04 	addi	r4,r4,8688
  100aac:	00c01004 	movi	r3,64
  100ab0:	0003c606 	br	1019cc <main+0x1370>
  100ab4:	28800203 	ldbu	r2,8(r5)
  100ab8:	00c00044 	movi	r3,1
  100abc:	10c01026 	beq	r2,r3,100b00 <main+0x4a4>
  100ac0:	10001226 	beq	r2,zero,100b0c <main+0x4b0>
  100ac4:	00c00084 	movi	r3,2
  100ac8:	10c0121e 	bne	r2,r3,100b14 <main+0x4b8>
  100acc:	00800184 	movi	r2,6
  100ad0:	88800035 	stwio	r2,0(r17)
  100ad4:	0001883a 	nop
  100ad8:	0001883a 	nop
  100adc:	0001883a 	nop
  100ae0:	0001883a 	nop
  100ae4:	0001883a 	nop
  100ae8:	0001883a 	nop
  100aec:	0001883a 	nop
  100af0:	0001883a 	nop
  100af4:	0001883a 	nop
  100af8:	0001883a 	nop
  100afc:	00000306 	br	100b0c <main+0x4b0>
  100b00:	00800184 	movi	r2,6
  100b04:	88800035 	stwio	r2,0(r17)
  100b08:	00022006 	br	10138c <main+0xd30>
  100b0c:	008001c4 	movi	r2,7
  100b10:	003ffc06 	br	100b04 <_gp+0xffef830c>
  100b14:	00800044 	movi	r2,1
  100b18:	d0a02445 	stb	r2,-32623(gp)
  100b1c:	00021b06 	br	10138c <main+0xd30>
  100b20:	01000104 	movi	r4,4
  100b24:	01001700 	call	100170 <Check_many_blocks>
  100b28:	10803fcc 	andi	r2,r2,255
  100b2c:	103fda1e 	bne	r2,zero,100a98 <_gp+0xffef82a0>
  100b30:	d0201c05 	stb	zero,-32656(gp)
  100b34:	057fe004 	movi	r21,-128
  100b38:	d1e00417 	ldw	r7,-32752(gp)
  100b3c:	d0a01c03 	ldbu	r2,-32656(gp)
  100b40:	38c00083 	ldbu	r3,2(r7)
  100b44:	10c2112e 	bgeu	r2,r3,10138c <main+0xd30>
  100b48:	1085883a 	add	r2,r2,r2
  100b4c:	1085883a 	add	r2,r2,r2
  100b50:	3887883a 	add	r3,r7,r2
  100b54:	18c00204 	addi	r3,r3,8
  100b58:	19000003 	ldbu	r4,0(r3)
  100b5c:	10800204 	addi	r2,r2,8
  100b60:	388f883a 	add	r7,r7,r2
  100b64:	2548b03a 	or	r4,r4,r21
  100b68:	19000005 	stb	r4,0(r3)
  100b6c:	01000834 	movhi	r4,32
  100b70:	d8000215 	stw	zero,8(sp)
  100b74:	d8000115 	stw	zero,4(sp)
  100b78:	d8000015 	stw	zero,0(sp)
  100b7c:	01800104 	movi	r6,4
  100b80:	000b883a 	mov	r5,zero
  100b84:	21085004 	addi	r4,r4,8512
  100b88:	01031ec0 	call	1031ec <alt_avalon_spi_command>
  100b8c:	d8800a15 	stw	r2,40(sp)
  100b90:	d0a01c03 	ldbu	r2,-32656(gp)
  100b94:	10800044 	addi	r2,r2,1
  100b98:	d0a01c05 	stb	r2,-32656(gp)
  100b9c:	003fe606 	br	100b38 <_gp+0xffef8340>
  100ba0:	01000104 	movi	r4,4
  100ba4:	01001700 	call	100170 <Check_many_blocks>
  100ba8:	10803fcc 	andi	r2,r2,255
  100bac:	103fba1e 	bne	r2,zero,100a98 <_gp+0xffef82a0>
  100bb0:	d0201c05 	stb	zero,-32656(gp)
  100bb4:	05400084 	movi	r21,2
  100bb8:	d1200417 	ldw	r4,-32752(gp)
  100bbc:	d0a01c03 	ldbu	r2,-32656(gp)
  100bc0:	d1a00517 	ldw	r6,-32748(gp)
  100bc4:	20c00083 	ldbu	r3,2(r4)
  100bc8:	10c05b2e 	bgeu	r2,r3,100d38 <main+0x6dc>
  100bcc:	1085883a 	add	r2,r2,r2
  100bd0:	2087883a 	add	r3,r4,r2
  100bd4:	18c00204 	addi	r3,r3,8
  100bd8:	19400003 	ldbu	r5,0(r3)
  100bdc:	11c00204 	addi	r7,r2,8
  100be0:	1085883a 	add	r2,r2,r2
  100be4:	29401fcc 	andi	r5,r5,127
  100be8:	10800284 	addi	r2,r2,10
  100bec:	19400005 	stb	r5,0(r3)
  100bf0:	3085883a 	add	r2,r6,r2
  100bf4:	21cf883a 	add	r7,r4,r7
  100bf8:	01000834 	movhi	r4,32
  100bfc:	d8000215 	stw	zero,8(sp)
  100c00:	d8800115 	stw	r2,4(sp)
  100c04:	dd400015 	stw	r21,0(sp)
  100c08:	01800084 	movi	r6,2
  100c0c:	000b883a 	mov	r5,zero
  100c10:	21085004 	addi	r4,r4,8512
  100c14:	01031ec0 	call	1031ec <alt_avalon_spi_command>
  100c18:	d8800a15 	stw	r2,40(sp)
  100c1c:	d0a01c03 	ldbu	r2,-32656(gp)
  100c20:	10800044 	addi	r2,r2,1
  100c24:	d0a01c05 	stb	r2,-32656(gp)
  100c28:	003fe306 	br	100bb8 <_gp+0xffef83c0>
  100c2c:	01000104 	movi	r4,4
  100c30:	01001700 	call	100170 <Check_many_blocks>
  100c34:	10803fcc 	andi	r2,r2,255
  100c38:	103f971e 	bne	r2,zero,100a98 <_gp+0xffef82a0>
  100c3c:	d0201c05 	stb	zero,-32656(gp)
  100c40:	057fe004 	movi	r21,-128
  100c44:	d1e00417 	ldw	r7,-32752(gp)
  100c48:	d0a01c03 	ldbu	r2,-32656(gp)
  100c4c:	38c00083 	ldbu	r3,2(r7)
  100c50:	10c1ce2e 	bgeu	r2,r3,10138c <main+0xd30>
  100c54:	1085883a 	add	r2,r2,r2
  100c58:	1085883a 	add	r2,r2,r2
  100c5c:	3887883a 	add	r3,r7,r2
  100c60:	18c00204 	addi	r3,r3,8
  100c64:	19000003 	ldbu	r4,0(r3)
  100c68:	10800204 	addi	r2,r2,8
  100c6c:	388f883a 	add	r7,r7,r2
  100c70:	2548b03a 	or	r4,r4,r21
  100c74:	19000005 	stb	r4,0(r3)
  100c78:	01000834 	movhi	r4,32
  100c7c:	d8000215 	stw	zero,8(sp)
  100c80:	d8000115 	stw	zero,4(sp)
  100c84:	d8000015 	stw	zero,0(sp)
  100c88:	01800104 	movi	r6,4
  100c8c:	01400044 	movi	r5,1
  100c90:	21085004 	addi	r4,r4,8512
  100c94:	01031ec0 	call	1031ec <alt_avalon_spi_command>
  100c98:	d8800a15 	stw	r2,40(sp)
  100c9c:	d0a01c03 	ldbu	r2,-32656(gp)
  100ca0:	10800044 	addi	r2,r2,1
  100ca4:	d0a01c05 	stb	r2,-32656(gp)
  100ca8:	003fe606 	br	100c44 <_gp+0xffef844c>
  100cac:	01000104 	movi	r4,4
  100cb0:	01001700 	call	100170 <Check_many_blocks>
  100cb4:	10803fcc 	andi	r2,r2,255
  100cb8:	103f771e 	bne	r2,zero,100a98 <_gp+0xffef82a0>
  100cbc:	d0201c05 	stb	zero,-32656(gp)
  100cc0:	05400084 	movi	r21,2
  100cc4:	d1200417 	ldw	r4,-32752(gp)
  100cc8:	d0a01c03 	ldbu	r2,-32656(gp)
  100ccc:	d1a00517 	ldw	r6,-32748(gp)
  100cd0:	20c00083 	ldbu	r3,2(r4)
  100cd4:	10c0182e 	bgeu	r2,r3,100d38 <main+0x6dc>
  100cd8:	1085883a 	add	r2,r2,r2
  100cdc:	2087883a 	add	r3,r4,r2
  100ce0:	18c00204 	addi	r3,r3,8
  100ce4:	19400003 	ldbu	r5,0(r3)
  100ce8:	11c00204 	addi	r7,r2,8
  100cec:	1085883a 	add	r2,r2,r2
  100cf0:	29401fcc 	andi	r5,r5,127
  100cf4:	10800284 	addi	r2,r2,10
  100cf8:	19400005 	stb	r5,0(r3)
  100cfc:	3085883a 	add	r2,r6,r2
  100d00:	21cf883a 	add	r7,r4,r7
  100d04:	01000834 	movhi	r4,32
  100d08:	d8000215 	stw	zero,8(sp)
  100d0c:	d8800115 	stw	r2,4(sp)
  100d10:	dd400015 	stw	r21,0(sp)
  100d14:	01800084 	movi	r6,2
  100d18:	01400044 	movi	r5,1
  100d1c:	21085004 	addi	r4,r4,8512
  100d20:	01031ec0 	call	1031ec <alt_avalon_spi_command>
  100d24:	d8800a15 	stw	r2,40(sp)
  100d28:	d0a01c03 	ldbu	r2,-32656(gp)
  100d2c:	10800044 	addi	r2,r2,1
  100d30:	d0a01c05 	stb	r2,-32656(gp)
  100d34:	003fe306 	br	100cc4 <_gp+0xffef84cc>
  100d38:	00800044 	movi	r2,1
  100d3c:	30800045 	stb	r2,1(r6)
  100d40:	003f5506 	br	100a98 <_gp+0xffef82a0>
  100d44:	010000c4 	movi	r4,3
  100d48:	01001700 	call	100170 <Check_many_blocks>
  100d4c:	10803fcc 	andi	r2,r2,255
  100d50:	103f511e 	bne	r2,zero,100a98 <_gp+0xffef82a0>
  100d54:	000b883a 	mov	r5,zero
  100d58:	0009883a 	mov	r4,zero
  100d5c:	01004380 	call	100438 <Control_TCXO_DAC>
  100d60:	d0201c05 	stb	zero,-32656(gp)
  100d64:	d1600417 	ldw	r5,-32752(gp)
  100d68:	d0a01c03 	ldbu	r2,-32656(gp)
  100d6c:	28c00083 	ldbu	r3,2(r5)
  100d70:	10c00a2e 	bgeu	r2,r3,100d9c <main+0x740>
  100d74:	1087883a 	add	r3,r2,r2
  100d78:	1885883a 	add	r2,r3,r2
  100d7c:	10800204 	addi	r2,r2,8
  100d80:	288b883a 	add	r5,r5,r2
  100d84:	01000044 	movi	r4,1
  100d88:	01004d00 	call	1004d0 <Control_TCXO_ADF>
  100d8c:	d0a01c03 	ldbu	r2,-32656(gp)
  100d90:	10800044 	addi	r2,r2,1
  100d94:	d0a01c05 	stb	r2,-32656(gp)
  100d98:	003ff206 	br	100d64 <_gp+0xffef856c>
  100d9c:	d0e02443 	ldbu	r3,-32623(gp)
  100da0:	d0a00517 	ldw	r2,-32748(gp)
  100da4:	18030526 	beq	r3,zero,1019bc <main+0x1360>
  100da8:	00c00204 	movi	r3,8
  100dac:	003f3906 	br	100a94 <_gp+0xffef829c>
  100db0:	28c00243 	ldbu	r3,9(r5)
  100db4:	2d400343 	ldbu	r21,13(r5)
  100db8:	1808963a 	slli	r4,r3,24
  100dbc:	28c00283 	ldbu	r3,10(r5)
  100dc0:	d5601c45 	stb	r21,-32655(gp)
  100dc4:	1806943a 	slli	r3,r3,16
  100dc8:	20c6b03a 	or	r3,r4,r3
  100dcc:	29000303 	ldbu	r4,12(r5)
  100dd0:	1908b03a 	or	r4,r3,r4
  100dd4:	28c002c3 	ldbu	r3,11(r5)
  100dd8:	1806923a 	slli	r3,r3,8
  100ddc:	20c6b03a 	or	r3,r4,r3
  100de0:	29000483 	ldbu	r4,18(r5)
  100de4:	d0e02315 	stw	r3,-32628(gp)
  100de8:	2002f21e 	bne	r4,zero,1019b4 <main+0x1358>
  100dec:	290004c3 	ldbu	r4,19(r5)
  100df0:	018000c4 	movi	r6,3
  100df4:	21803d1e 	bne	r4,r6,100eec <main+0x890>
  100df8:	28c00203 	ldbu	r3,8(r5)
  100dfc:	1802ed1e 	bne	r3,zero,1019b4 <main+0x1358>
  100e00:	01000834 	movhi	r4,32
  100e04:	000d883a 	mov	r6,zero
  100e08:	01401404 	movi	r5,80
  100e0c:	21086004 	addi	r4,r4,8576
  100e10:	01000d00 	call	1000d0 <I2C_start>
  100e14:	d0a02445 	stb	r2,-32623(gp)
  100e18:	d0a00417 	ldw	r2,-32752(gp)
  100e1c:	01000834 	movhi	r4,32
  100e20:	000d883a 	mov	r6,zero
  100e24:	11400403 	ldbu	r5,16(r2)
  100e28:	21086004 	addi	r4,r4,8576
  100e2c:	002b883a 	mov	r21,zero
  100e30:	01001340 	call	100134 <I2C_write>
  100e34:	d0e02443 	ldbu	r3,-32623(gp)
  100e38:	01000834 	movhi	r4,32
  100e3c:	000d883a 	mov	r6,zero
  100e40:	10c5883a 	add	r2,r2,r3
  100e44:	d0a02445 	stb	r2,-32623(gp)
  100e48:	d0a00417 	ldw	r2,-32752(gp)
  100e4c:	21086004 	addi	r4,r4,8576
  100e50:	11400443 	ldbu	r5,17(r2)
  100e54:	01001340 	call	100134 <I2C_write>
  100e58:	d0e02443 	ldbu	r3,-32623(gp)
  100e5c:	10c5883a 	add	r2,r2,r3
  100e60:	d0a02445 	stb	r2,-32623(gp)
  100e64:	d0e01c43 	ldbu	r3,-32655(gp)
  100e68:	d0a00417 	ldw	r2,-32752(gp)
  100e6c:	18ffffc4 	addi	r3,r3,-1
  100e70:	a8c00d0e 	bge	r21,r3,100ea8 <main+0x84c>
  100e74:	1545883a 	add	r2,r2,r21
  100e78:	11400803 	ldbu	r5,32(r2)
  100e7c:	01000834 	movhi	r4,32
  100e80:	000d883a 	mov	r6,zero
  100e84:	21086004 	addi	r4,r4,8576
  100e88:	01001340 	call	100134 <I2C_write>
  100e8c:	d0e02443 	ldbu	r3,-32623(gp)
  100e90:	0104e204 	movi	r4,5000
  100e94:	ad400044 	addi	r21,r21,1
  100e98:	10c5883a 	add	r2,r2,r3
  100e9c:	d0a02445 	stb	r2,-32623(gp)
  100ea0:	010313c0 	call	10313c <usleep>
  100ea4:	003fef06 	br	100e64 <_gp+0xffef866c>
  100ea8:	156b883a 	add	r21,r2,r21
  100eac:	a9400803 	ldbu	r5,32(r21)
  100eb0:	05800044 	movi	r22,1
  100eb4:	01000834 	movhi	r4,32
  100eb8:	b00d883a 	mov	r6,r22
  100ebc:	21086004 	addi	r4,r4,8576
  100ec0:	01001340 	call	100134 <I2C_write>
  100ec4:	d0e02443 	ldbu	r3,-32623(gp)
  100ec8:	0104e204 	movi	r4,5000
  100ecc:	10c5883a 	add	r2,r2,r3
  100ed0:	d0a02445 	stb	r2,-32623(gp)
  100ed4:	010313c0 	call	10313c <usleep>
  100ed8:	d0e02443 	ldbu	r3,-32623(gp)
  100edc:	d0a00517 	ldw	r2,-32748(gp)
  100ee0:	1802b41e 	bne	r3,zero,1019b4 <main+0x1358>
  100ee4:	15800045 	stb	r22,1(r2)
  100ee8:	003eeb06 	br	100a98 <_gp+0xffef82a0>
  100eec:	01800044 	movi	r6,1
  100ef0:	2182b01e 	bne	r4,r6,1019b4 <main+0x1358>
  100ef4:	29800203 	ldbu	r6,8(r5)
  100ef8:	01000084 	movi	r4,2
  100efc:	3102ad1e 	bne	r6,r4,1019b4 <main+0x1358>
  100f00:	1800041e 	bne	r3,zero,100f14 <main+0x8b8>
  100f04:	d0201b15 	stw	zero,-32660(gp)
  100f08:	d0201a15 	stw	zero,-32664(gp)
  100f0c:	d0201815 	stw	zero,-32672(gp)
  100f10:	d0202515 	stw	zero,-32620(gp)
  100f14:	d5e01a17 	ldw	r23,-32664(gp)
  100f18:	00804004 	movi	r2,256
  100f1c:	15c5c83a 	sub	r2,r2,r23
  100f20:	d0a01915 	stw	r2,-32668(gp)
  100f24:	0080150e 	bge	zero,r2,100f7c <main+0x920>
  100f28:	ad403fcc 	andi	r21,r21,255
  100f2c:	a880020e 	bge	r21,r2,100f38 <main+0x8dc>
  100f30:	d5601815 	stw	r21,-32672(gp)
  100f34:	00000106 	br	100f3c <main+0x8e0>
  100f38:	d0a01815 	stw	r2,-32672(gp)
  100f3c:	d5a01817 	ldw	r22,-32672(gp)
  100f40:	01000834 	movhi	r4,32
  100f44:	21023904 	addi	r4,r4,2276
  100f48:	b00d883a 	mov	r6,r22
  100f4c:	29400804 	addi	r5,r5,32
  100f50:	25c9883a 	add	r4,r4,r23
  100f54:	bdad883a 	add	r22,r23,r22
  100f58:	0102d800 	call	102d80 <memcpy>
  100f5c:	d5a01a15 	stw	r22,-32664(gp)
  100f60:	00804004 	movi	r2,256
  100f64:	a800021e 	bne	r21,zero,100f70 <main+0x914>
  100f68:	0580010e 	bge	zero,r22,100f70 <main+0x914>
  100f6c:	d0a01a15 	stw	r2,-32664(gp)
  100f70:	d0e01a17 	ldw	r3,-32664(gp)
  100f74:	10c5c83a 	sub	r2,r2,r3
  100f78:	d0a01915 	stw	r2,-32668(gp)
  100f7c:	d0a01a17 	ldw	r2,-32664(gp)
  100f80:	00c03fc4 	movi	r3,255
  100f84:	1880280e 	bge	r3,r2,101028 <main+0x9cc>
  100f88:	d1e01b17 	ldw	r7,-32660(gp)
  100f8c:	38c4703a 	and	r2,r7,r3
  100f90:	1000101e 	bne	r2,zero,100fd4 <main+0x978>
  100f94:	3800010e 	bge	r7,zero,100f9c <main+0x940>
  100f98:	38cf883a 	add	r7,r7,r3
  100f9c:	380fd23a 	srai	r7,r7,8
  100fa0:	01000834 	movhi	r4,32
  100fa4:	01800044 	movi	r6,1
  100fa8:	39c03fcc 	andi	r7,r7,255
  100fac:	000b883a 	mov	r5,zero
  100fb0:	21084004 	addi	r4,r4,8448
  100fb4:	0101ce40 	call	101ce4 <FlashSpiEraseSector>
  100fb8:	10803fcc 	andi	r2,r2,255
  100fbc:	10000326 	beq	r2,zero,100fcc <main+0x970>
  100fc0:	d0a02443 	ldbu	r2,-32623(gp)
  100fc4:	10800044 	addi	r2,r2,1
  100fc8:	d0a02445 	stb	r2,-32623(gp)
  100fcc:	d0a02443 	ldbu	r2,-32623(gp)
  100fd0:	10000f1e 	bne	r2,zero,101010 <main+0x9b4>
  100fd4:	00800834 	movhi	r2,32
  100fd8:	d1a01b17 	ldw	r6,-32660(gp)
  100fdc:	10823904 	addi	r2,r2,2276
  100fe0:	01000834 	movhi	r4,32
  100fe4:	d8000115 	stw	zero,4(sp)
  100fe8:	d8800015 	stw	r2,0(sp)
  100fec:	01c04004 	movi	r7,256
  100ff0:	000b883a 	mov	r5,zero
  100ff4:	21084004 	addi	r4,r4,8448
  100ff8:	0101b6c0 	call	101b6c <FlashSpiTransfer>
  100ffc:	10803fcc 	andi	r2,r2,255
  101000:	10000326 	beq	r2,zero,101010 <main+0x9b4>
  101004:	d0a02443 	ldbu	r2,-32623(gp)
  101008:	10800044 	addi	r2,r2,1
  10100c:	d0a02445 	stb	r2,-32623(gp)
  101010:	d0a01b17 	ldw	r2,-32660(gp)
  101014:	d0201a15 	stw	zero,-32664(gp)
  101018:	10800044 	addi	r2,r2,1
  10101c:	d0a01b15 	stw	r2,-32660(gp)
  101020:	00804004 	movi	r2,256
  101024:	d0a01915 	stw	r2,-32668(gp)
  101028:	d5e01c43 	ldbu	r23,-32655(gp)
  10102c:	d5601817 	ldw	r21,-32672(gp)
  101030:	adc00f0e 	bge	r21,r23,101070 <main+0xa14>
  101034:	bd6dc83a 	sub	r22,r23,r21
  101038:	d1600417 	ldw	r5,-32752(gp)
  10103c:	d5601a17 	ldw	r21,-32664(gp)
  101040:	01000834 	movhi	r4,32
  101044:	21023904 	addi	r4,r4,2276
  101048:	2549883a 	add	r4,r4,r21
  10104c:	b80d883a 	mov	r6,r23
  101050:	29400804 	addi	r5,r5,32
  101054:	d5a01815 	stw	r22,-32672(gp)
  101058:	0102d800 	call	102d80 <memcpy>
  10105c:	b56b883a 	add	r21,r22,r21
  101060:	00804004 	movi	r2,256
  101064:	d5601a15 	stw	r21,-32664(gp)
  101068:	156bc83a 	sub	r21,r2,r21
  10106c:	d5601915 	stw	r21,-32668(gp)
  101070:	d1a02517 	ldw	r6,-32620(gp)
  101074:	00c04034 	movhi	r3,256
  101078:	d0a00517 	ldw	r2,-32748(gp)
  10107c:	b98d883a 	add	r6,r23,r6
  101080:	d1a02515 	stw	r6,-32620(gp)
  101084:	19824b36 	bltu	r3,r6,1019b4 <main+0x1358>
  101088:	d0e02443 	ldbu	r3,-32623(gp)
  10108c:	00024806 	br	1019b0 <main+0x1354>
  101090:	28c00243 	ldbu	r3,9(r5)
  101094:	1808963a 	slli	r4,r3,24
  101098:	28c00283 	ldbu	r3,10(r5)
  10109c:	1806943a 	slli	r3,r3,16
  1010a0:	20c6b03a 	or	r3,r4,r3
  1010a4:	29000303 	ldbu	r4,12(r5)
  1010a8:	1908b03a 	or	r4,r3,r4
  1010ac:	28c002c3 	ldbu	r3,11(r5)
  1010b0:	1806923a 	slli	r3,r3,8
  1010b4:	20c6b03a 	or	r3,r4,r3
  1010b8:	d0e02315 	stw	r3,-32628(gp)
  1010bc:	28c00343 	ldbu	r3,13(r5)
  1010c0:	d0e01c45 	stb	r3,-32655(gp)
  1010c4:	28c00483 	ldbu	r3,18(r5)
  1010c8:	18023a1e 	bne	r3,zero,1019b4 <main+0x1358>
  1010cc:	28c004c3 	ldbu	r3,19(r5)
  1010d0:	010000c4 	movi	r4,3
  1010d4:	19003b1e 	bne	r3,r4,1011c4 <main+0xb68>
  1010d8:	28c00203 	ldbu	r3,8(r5)
  1010dc:	1802351e 	bne	r3,zero,1019b4 <main+0x1358>
  1010e0:	01000834 	movhi	r4,32
  1010e4:	000d883a 	mov	r6,zero
  1010e8:	01401404 	movi	r5,80
  1010ec:	21086004 	addi	r4,r4,8576
  1010f0:	01000d00 	call	1000d0 <I2C_start>
  1010f4:	d0a02445 	stb	r2,-32623(gp)
  1010f8:	d0a00417 	ldw	r2,-32752(gp)
  1010fc:	01000834 	movhi	r4,32
  101100:	000d883a 	mov	r6,zero
  101104:	11400403 	ldbu	r5,16(r2)
  101108:	21086004 	addi	r4,r4,8576
  10110c:	002d883a 	mov	r22,zero
  101110:	01001340 	call	100134 <I2C_write>
  101114:	d0e02443 	ldbu	r3,-32623(gp)
  101118:	01000834 	movhi	r4,32
  10111c:	000d883a 	mov	r6,zero
  101120:	10c5883a 	add	r2,r2,r3
  101124:	d0a02445 	stb	r2,-32623(gp)
  101128:	d0a00417 	ldw	r2,-32752(gp)
  10112c:	21086004 	addi	r4,r4,8576
  101130:	11400443 	ldbu	r5,17(r2)
  101134:	01001340 	call	100134 <I2C_write>
  101138:	d0e02443 	ldbu	r3,-32623(gp)
  10113c:	01000834 	movhi	r4,32
  101140:	01800044 	movi	r6,1
  101144:	10c5883a 	add	r2,r2,r3
  101148:	01401404 	movi	r5,80
  10114c:	21086004 	addi	r4,r4,8576
  101150:	d0a02445 	stb	r2,-32623(gp)
  101154:	01000d00 	call	1000d0 <I2C_start>
  101158:	d0e02443 	ldbu	r3,-32623(gp)
  10115c:	10c5883a 	add	r2,r2,r3
  101160:	d0a02445 	stb	r2,-32623(gp)
  101164:	d0a01c43 	ldbu	r2,-32655(gp)
  101168:	d5600517 	ldw	r21,-32748(gp)
  10116c:	10bfffc4 	addi	r2,r2,-1
  101170:	b080080e 	bge	r22,r2,101194 <main+0xb38>
  101174:	01000834 	movhi	r4,32
  101178:	000b883a 	mov	r5,zero
  10117c:	21086004 	addi	r4,r4,8576
  101180:	adab883a 	add	r21,r21,r22
  101184:	01001080 	call	100108 <I2C_read>
  101188:	a8800805 	stb	r2,32(r21)
  10118c:	b5800044 	addi	r22,r22,1
  101190:	003ff406 	br	101164 <_gp+0xffef896c>
  101194:	05c00044 	movi	r23,1
  101198:	01000834 	movhi	r4,32
  10119c:	b80b883a 	mov	r5,r23
  1011a0:	21086004 	addi	r4,r4,8576
  1011a4:	01001080 	call	100108 <I2C_read>
  1011a8:	d0e02443 	ldbu	r3,-32623(gp)
  1011ac:	adab883a 	add	r21,r21,r22
  1011b0:	a8800805 	stb	r2,32(r21)
  1011b4:	d0a00517 	ldw	r2,-32748(gp)
  1011b8:	1801fe1e 	bne	r3,zero,1019b4 <main+0x1358>
  1011bc:	15c00045 	stb	r23,1(r2)
  1011c0:	003e3506 	br	100a98 <_gp+0xffef82a0>
  1011c4:	01000044 	movi	r4,1
  1011c8:	1901fa1e 	bne	r3,r4,1019b4 <main+0x1358>
  1011cc:	28800383 	ldbu	r2,14(r5)
  1011d0:	05400834 	movhi	r21,32
  1011d4:	ad423904 	addi	r21,r21,2276
  1011d8:	100c963a 	slli	r6,r2,24
  1011dc:	288003c3 	ldbu	r2,15(r5)
  1011e0:	01000834 	movhi	r4,32
  1011e4:	01c04004 	movi	r7,256
  1011e8:	1004943a 	slli	r2,r2,16
  1011ec:	21084004 	addi	r4,r4,8448
  1011f0:	3084b03a 	or	r2,r6,r2
  1011f4:	29800443 	ldbu	r6,17(r5)
  1011f8:	118cb03a 	or	r6,r2,r6
  1011fc:	28800403 	ldbu	r2,16(r5)
  101200:	dd400015 	stw	r21,0(sp)
  101204:	000b883a 	mov	r5,zero
  101208:	1004923a 	slli	r2,r2,8
  10120c:	308cb03a 	or	r6,r6,r2
  101210:	d1a01b15 	stw	r6,-32660(gp)
  101214:	0101a3c0 	call	101a3c <FlashSpiRead>
  101218:	10803fcc 	andi	r2,r2,255
  10121c:	10000326 	beq	r2,zero,10122c <main+0xbd0>
  101220:	d0a02443 	ldbu	r2,-32623(gp)
  101224:	10800044 	addi	r2,r2,1
  101228:	d0a02445 	stb	r2,-32623(gp)
  10122c:	d0a00517 	ldw	r2,-32748(gp)
  101230:	d1201c43 	ldbu	r4,-32655(gp)
  101234:	0007883a 	mov	r3,zero
  101238:	10800804 	addi	r2,r2,32
  10123c:	1901da0e 	bge	r3,r4,1019a8 <main+0x134c>
  101240:	1d4b883a 	add	r5,r3,r21
  101244:	29400003 	ldbu	r5,0(r5)
  101248:	18c00044 	addi	r3,r3,1
  10124c:	10800044 	addi	r2,r2,1
  101250:	117fffc5 	stb	r5,-1(r2)
  101254:	003ff906 	br	10123c <_gp+0xffef8a44>
  101258:	1887883a 	add	r3,r3,r2
  10125c:	18c00203 	ldbu	r3,8(r3)
  101260:	1800121e 	bne	r3,zero,1012ac <main+0xc50>
  101264:	d0e00517 	ldw	r3,-32748(gp)
  101268:	1085883a 	add	r2,r2,r2
  10126c:	1085883a 	add	r2,r2,r2
  101270:	1885883a 	add	r2,r3,r2
  101274:	d0e0038b 	ldhu	r3,-32754(gp)
  101278:	10000205 	stb	zero,8(r2)
  10127c:	10000245 	stb	zero,9(r2)
  101280:	1808d23a 	srli	r4,r3,8
  101284:	10c002c5 	stb	r3,11(r2)
  101288:	11000285 	stb	r4,10(r2)
  10128c:	d0a01c03 	ldbu	r2,-32656(gp)
  101290:	10800044 	addi	r2,r2,1
  101294:	d0a01c05 	stb	r2,-32656(gp)
  101298:	d0e00417 	ldw	r3,-32752(gp)
  10129c:	d0a01c03 	ldbu	r2,-32656(gp)
  1012a0:	19000083 	ldbu	r4,2(r3)
  1012a4:	113fec36 	bltu	r2,r4,101258 <_gp+0xffef8a60>
  1012a8:	00003806 	br	10138c <main+0xd30>
  1012ac:	1d40331e 	bne	r3,r21,10137c <main+0xd20>
  1012b0:	01000834 	movhi	r4,32
  1012b4:	000d883a 	mov	r6,zero
  1012b8:	01401204 	movi	r5,72
  1012bc:	21086004 	addi	r4,r4,8576
  1012c0:	01000d00 	call	1000d0 <I2C_start>
  1012c4:	01000834 	movhi	r4,32
  1012c8:	a80d883a 	mov	r6,r21
  1012cc:	000b883a 	mov	r5,zero
  1012d0:	21086004 	addi	r4,r4,8576
  1012d4:	d8800a15 	stw	r2,40(sp)
  1012d8:	01001340 	call	100134 <I2C_write>
  1012dc:	01000834 	movhi	r4,32
  1012e0:	a80d883a 	mov	r6,r21
  1012e4:	01401204 	movi	r5,72
  1012e8:	21086004 	addi	r4,r4,8576
  1012ec:	d8800a15 	stw	r2,40(sp)
  1012f0:	01000d00 	call	1000d0 <I2C_start>
  1012f4:	01000834 	movhi	r4,32
  1012f8:	000b883a 	mov	r5,zero
  1012fc:	21086004 	addi	r4,r4,8576
  101300:	d8800a15 	stw	r2,40(sp)
  101304:	01001080 	call	100108 <I2C_read>
  101308:	11003fcc 	andi	r4,r2,255
  10130c:	2100201c 	xori	r4,r4,128
  101310:	01400284 	movi	r5,10
  101314:	213fe004 	addi	r4,r4,-128
  101318:	01022f00 	call	1022f0 <__mulsi3>
  10131c:	01000834 	movhi	r4,32
  101320:	a80b883a 	mov	r5,r21
  101324:	21086004 	addi	r4,r4,8576
  101328:	d0a0030d 	sth	r2,-32756(gp)
  10132c:	01001080 	call	100108 <I2C_read>
  101330:	d8800a15 	stw	r2,40(sp)
  101334:	d8800a17 	ldw	r2,40(sp)
  101338:	1080200c 	andi	r2,r2,128
  10133c:	10000326 	beq	r2,zero,10134c <main+0xcf0>
  101340:	d0a0030b 	ldhu	r2,-32756(gp)
  101344:	10800144 	addi	r2,r2,5
  101348:	d0a0030d 	sth	r2,-32756(gp)
  10134c:	d0e01c03 	ldbu	r3,-32656(gp)
  101350:	d1200417 	ldw	r4,-32752(gp)
  101354:	18c5883a 	add	r2,r3,r3
  101358:	20c7883a 	add	r3,r4,r3
  10135c:	d1200517 	ldw	r4,-32748(gp)
  101360:	18c00203 	ldbu	r3,8(r3)
  101364:	1085883a 	add	r2,r2,r2
  101368:	2085883a 	add	r2,r4,r2
  10136c:	10c00205 	stb	r3,8(r2)
  101370:	15800245 	stb	r22,9(r2)
  101374:	d0e0030b 	ldhu	r3,-32756(gp)
  101378:	003fc106 	br	101280 <_gp+0xffef8a88>
  10137c:	d0a02443 	ldbu	r2,-32623(gp)
  101380:	10800044 	addi	r2,r2,1
  101384:	d0a02445 	stb	r2,-32623(gp)
  101388:	003fc006 	br	10128c <_gp+0xffef8a94>
  10138c:	00c00044 	movi	r3,1
  101390:	d0a00517 	ldw	r2,-32748(gp)
  101394:	003dbf06 	br	100a94 <_gp+0xffef829c>
  101398:	01000104 	movi	r4,4
  10139c:	01001700 	call	100170 <Check_many_blocks>
  1013a0:	10803fcc 	andi	r2,r2,255
  1013a4:	103dbc1e 	bne	r2,zero,100a98 <_gp+0xffef82a0>
  1013a8:	d0201c05 	stb	zero,-32656(gp)
  1013ac:	d0e00417 	ldw	r3,-32752(gp)
  1013b0:	d0a01c03 	ldbu	r2,-32656(gp)
  1013b4:	19000083 	ldbu	r4,2(r3)
  1013b8:	11017b2e 	bgeu	r2,r4,1019a8 <main+0x134c>
  1013bc:	1085883a 	add	r2,r2,r2
  1013c0:	1085883a 	add	r2,r2,r2
  1013c4:	1885883a 	add	r2,r3,r2
  1013c8:	10c00203 	ldbu	r3,8(r2)
  1013cc:	1800131e 	bne	r3,zero,10141c <main+0xdc0>
  1013d0:	10800243 	ldbu	r2,9(r2)
  1013d4:	1000111e 	bne	r2,zero,10141c <main+0xdc0>
  1013d8:	000b883a 	mov	r5,zero
  1013dc:	0009883a 	mov	r4,zero
  1013e0:	01004d00 	call	1004d0 <Control_TCXO_ADF>
  1013e4:	d0a01c03 	ldbu	r2,-32656(gp)
  1013e8:	d0e00417 	ldw	r3,-32752(gp)
  1013ec:	d1600384 	addi	r5,gp,-32754
  1013f0:	1085883a 	add	r2,r2,r2
  1013f4:	1085883a 	add	r2,r2,r2
  1013f8:	1885883a 	add	r2,r3,r2
  1013fc:	10c00283 	ldbu	r3,10(r2)
  101400:	108002c3 	ldbu	r2,11(r2)
  101404:	01000044 	movi	r4,1
  101408:	1806923a 	slli	r3,r3,8
  10140c:	1885883a 	add	r2,r3,r2
  101410:	d0a0038d 	sth	r2,-32754(gp)
  101414:	01004380 	call	100438 <Control_TCXO_DAC>
  101418:	00000306 	br	101428 <main+0xdcc>
  10141c:	d0a02443 	ldbu	r2,-32623(gp)
  101420:	10800044 	addi	r2,r2,1
  101424:	d0a02445 	stb	r2,-32623(gp)
  101428:	d0a01c03 	ldbu	r2,-32656(gp)
  10142c:	10800044 	addi	r2,r2,1
  101430:	d0a01c05 	stb	r2,-32656(gp)
  101434:	003fdd06 	br	1013ac <_gp+0xffef8bb4>
  101438:	28c00243 	ldbu	r3,9(r5)
  10143c:	29800343 	ldbu	r6,13(r5)
  101440:	1808963a 	slli	r4,r3,24
  101444:	28c00283 	ldbu	r3,10(r5)
  101448:	d1a01c45 	stb	r6,-32655(gp)
  10144c:	1806943a 	slli	r3,r3,16
  101450:	20c6b03a 	or	r3,r4,r3
  101454:	29000303 	ldbu	r4,12(r5)
  101458:	1908b03a 	or	r4,r3,r4
  10145c:	28c002c3 	ldbu	r3,11(r5)
  101460:	29400203 	ldbu	r5,8(r5)
  101464:	1806923a 	slli	r3,r3,8
  101468:	20c6b03a 	or	r3,r4,r3
  10146c:	d0e02315 	stw	r3,-32628(gp)
  101470:	01000044 	movi	r4,1
  101474:	29000526 	beq	r5,r4,10148c <main+0xe30>
  101478:	28014e26 	beq	r5,zero,1019b4 <main+0x1358>
  10147c:	00c00084 	movi	r3,2
  101480:	28c0861e 	bne	r5,r3,10169c <main+0x1040>
  101484:	d1201315 	stw	r4,-32692(gp)
  101488:	00008406 	br	10169c <main+0x1040>
  10148c:	1800021e 	bne	r3,zero,101498 <main+0xe3c>
  101490:	00800284 	movi	r2,10
  101494:	d0a02105 	stb	r2,-32636(gp)
  101498:	31803fcc 	andi	r6,r6,255
  10149c:	3000021e 	bne	r6,zero,1014a8 <main+0xe4c>
  1014a0:	00800784 	movi	r2,30
  1014a4:	d0a02105 	stb	r2,-32636(gp)
  1014a8:	00800044 	movi	r2,1
  1014ac:	01c00044 	movi	r7,1
  1014b0:	023e0034 	movhi	r8,63488
  1014b4:	01400834 	movhi	r5,32
  1014b8:	03c002f4 	movhi	r15,11
  1014bc:	02c00174 	movhi	r11,5
  1014c0:	05400274 	movhi	r21,9
  1014c4:	05bdf834 	movhi	r22,63456
  1014c8:	d0a01405 	stb	r2,-32688(gp)
  1014cc:	010002c4 	movi	r4,11
  1014d0:	423fffc4 	addi	r8,r8,-1
  1014d4:	29488104 	addi	r5,r5,8708
  1014d8:	02400504 	movi	r9,20
  1014dc:	380d883a 	mov	r6,r7
  1014e0:	02800144 	movi	r10,5
  1014e4:	07c00604 	movi	ra,24
  1014e8:	03000d04 	movi	r12,52
  1014ec:	03400434 	movhi	r13,16
  1014f0:	03800084 	movi	r14,2
  1014f4:	7beb9804 	addi	r15,r15,-20896
  1014f8:	5ae80004 	addi	r11,r11,-24576
  1014fc:	ad6fffc4 	addi	r21,r21,-16385
  101500:	b5bfffc4 	addi	r22,r22,-1
  101504:	d0a01403 	ldbu	r2,-32688(gp)
  101508:	103d6326 	beq	r2,zero,100a98 <_gp+0xffef82a0>
  10150c:	d0a02103 	ldbu	r2,-32636(gp)
  101510:	11001326 	beq	r2,r4,101560 <main+0xf04>
  101514:	20800a36 	bltu	r4,r2,101540 <main+0xee4>
  101518:	00c00284 	movi	r3,10
  10151c:	10c05a1e 	bne	r2,r3,101688 <main+0x102c>
  101520:	d2e00115 	stw	r11,-32764(gp)
  101524:	d5600015 	stw	r21,-32768(gp)
  101528:	d2e01715 	stw	r11,-32676(gp)
  10152c:	2a000035 	stwio	r8,0(r5)
  101530:	2d800035 	stwio	r22,0(r5)
  101534:	d1202105 	stb	r4,-32636(gp)
  101538:	d1a01405 	stb	r6,-32688(gp)
  10153c:	00000806 	br	101560 <main+0xf04>
  101540:	05c00504 	movi	r23,20
  101544:	15c01a26 	beq	r2,r23,1015b0 <main+0xf54>
  101548:	00c00784 	movi	r3,30
  10154c:	10c04e1e 	bne	r2,r3,101688 <main+0x102c>
  101550:	00bfffc4 	movi	r2,-1
  101554:	28800035 	stwio	r2,0(r5)
  101558:	d0202105 	stb	zero,-32636(gp)
  10155c:	00004606 	br	101678 <main+0x101c>
  101560:	a0800037 	ldwio	r2,0(r20)
  101564:	00c00834 	movhi	r3,32
  101568:	108004cc 	andi	r2,r2,19
  10156c:	05c00404 	movi	r23,16
  101570:	18c88004 	addi	r3,r3,8704
  101574:	15c0031e 	bne	r2,r23,101584 <main+0xf28>
  101578:	2a000035 	stwio	r8,0(r5)
  10157c:	d2602105 	stb	r9,-32636(gp)
  101580:	d1a01405 	stb	r6,-32688(gp)
  101584:	18800037 	ldwio	r2,0(r3)
  101588:	108004cc 	andi	r2,r2,19
  10158c:	11c0031e 	bne	r2,r7,10159c <main+0xf40>
  101590:	008002c4 	movi	r2,11
  101594:	d0a02105 	stb	r2,-32636(gp)
  101598:	d1e01405 	stb	r7,-32688(gp)
  10159c:	18800037 	ldwio	r2,0(r3)
  1015a0:	108004cc 	andi	r2,r2,19
  1015a4:	103fd71e 	bne	r2,zero,101504 <_gp+0xffef8d0c>
  1015a8:	d0202105 	stb	zero,-32636(gp)
  1015ac:	003fd506 	br	101504 <_gp+0xffef8d0c>
  1015b0:	d7e01615 	stw	ra,-32680(gp)
  1015b4:	d0a01617 	ldw	r2,-32680(gp)
  1015b8:	60802e36 	bltu	r12,r2,101674 <main+0x1018>
  1015bc:	d5e00417 	ldw	r23,-32752(gp)
  1015c0:	b8af883a 	add	r23,r23,r2
  1015c4:	b8c00203 	ldbu	r3,8(r23)
  1015c8:	1807c032 	custom	0,r3,r3,zero
  1015cc:	1f3fc02c 	andhi	fp,r3,65280
  1015d0:	b8c00243 	ldbu	r3,9(r23)
  1015d4:	1807c032 	custom	0,r3,r3,zero
  1015d8:	1807d23a 	srai	r3,r3,8
  1015dc:	18803fec 	andhi	r2,r3,255
  1015e0:	e086b03a 	or	r3,fp,r2
  1015e4:	b8800283 	ldbu	r2,10(r23)
  1015e8:	1005c032 	custom	0,r2,r2,zero
  1015ec:	1005d43a 	srai	r2,r2,16
  1015f0:	10bfc00c 	andi	r2,r2,65280
  1015f4:	1884b03a 	or	r2,r3,r2
  1015f8:	b8c002c3 	ldbu	r3,11(r23)
  1015fc:	1807c032 	custom	0,r3,r3,zero
  101600:	1806d63a 	srli	r3,r3,24
  101604:	d5e00017 	ldw	r23,-32768(gp)
  101608:	1884b03a 	or	r2,r3,r2
  10160c:	d0e01717 	ldw	r3,-32676(gp)
  101610:	d0a01515 	stw	r2,-32684(gp)
  101614:	b8c01136 	bltu	r23,r3,10165c <main+0x1000>
  101618:	1b47883a 	add	r3,r3,r13
  10161c:	18800035 	stwio	r2,0(r3)
  101620:	d0a01717 	ldw	r2,-32676(gp)
  101624:	10800104 	addi	r2,r2,4
  101628:	d0a01715 	stw	r2,-32676(gp)
  10162c:	a0800037 	ldwio	r2,0(r20)
  101630:	00c00834 	movhi	r3,32
  101634:	108002cc 	andi	r2,r2,11
  101638:	18c88004 	addi	r3,r3,8704
  10163c:	13bffb26 	beq	r2,r14,10162c <_gp+0xffef8e34>
  101640:	18800037 	ldwio	r2,0(r3)
  101644:	108002cc 	andi	r2,r2,11
  101648:	1000021e 	bne	r2,zero,101654 <main+0xff8>
  10164c:	d0202105 	stb	zero,-32636(gp)
  101650:	d3e01715 	stw	r15,-32676(gp)
  101654:	18800037 	ldwio	r2,0(r3)
  101658:	00000206 	br	101664 <main+0x1008>
  10165c:	d0a00517 	ldw	r2,-32748(gp)
  101660:	12800045 	stb	r10,1(r2)
  101664:	d0a01617 	ldw	r2,-32680(gp)
  101668:	10800104 	addi	r2,r2,4
  10166c:	d0a01615 	stw	r2,-32680(gp)
  101670:	003fd006 	br	1015b4 <_gp+0xffef8dbc>
  101674:	d2602105 	stb	r9,-32636(gp)
  101678:	d0a00517 	ldw	r2,-32748(gp)
  10167c:	d0201405 	stb	zero,-32688(gp)
  101680:	11800045 	stb	r6,1(r2)
  101684:	003f9f06 	br	101504 <_gp+0xffef8d0c>
  101688:	d0a00517 	ldw	r2,-32748(gp)
  10168c:	d0202105 	stb	zero,-32636(gp)
  101690:	d0201405 	stb	zero,-32688(gp)
  101694:	12800045 	stb	r10,1(r2)
  101698:	003f9a06 	br	101504 <_gp+0xffef8d0c>
  10169c:	11000045 	stb	r4,1(r2)
  1016a0:	003cfd06 	br	100a98 <_gp+0xffef82a0>
  1016a4:	28c00243 	ldbu	r3,9(r5)
  1016a8:	d0e02315 	stw	r3,-32628(gp)
  1016ac:	18000526 	beq	r3,zero,1016c4 <main+0x1068>
  1016b0:	d1202217 	ldw	r4,-32632(gp)
  1016b4:	18ffffc4 	addi	r3,r3,-1
  1016b8:	19004326 	beq	r3,r4,1017c8 <main+0x116c>
  1016bc:	00c00184 	movi	r3,6
  1016c0:	003cf406 	br	100a94 <_gp+0xffef829c>
  1016c4:	d5a01ec4 	addi	r22,gp,-32645
  1016c8:	01000834 	movhi	r4,32
  1016cc:	05c00084 	movi	r23,2
  1016d0:	073fe004 	movi	fp,-128
  1016d4:	d8000215 	stw	zero,8(sp)
  1016d8:	d8000115 	stw	zero,4(sp)
  1016dc:	d8000015 	stw	zero,0(sp)
  1016e0:	b00f883a 	mov	r7,r22
  1016e4:	01800104 	movi	r6,4
  1016e8:	000b883a 	mov	r5,zero
  1016ec:	21085004 	addi	r4,r4,8512
  1016f0:	d5e01f05 	stb	r23,-32644(gp)
  1016f4:	d7201ec5 	stb	fp,-32645(gp)
  1016f8:	d0201f45 	stb	zero,-32643(gp)
  1016fc:	d0201f85 	stb	zero,-32642(gp)
  101700:	01031ec0 	call	1031ec <alt_avalon_spi_command>
  101704:	d8800a15 	stw	r2,40(sp)
  101708:	d0a00417 	ldw	r2,-32752(gp)
  10170c:	d5e01f05 	stb	r23,-32644(gp)
  101710:	d7201ec5 	stb	fp,-32645(gp)
  101714:	10800203 	ldbu	r2,8(r2)
  101718:	d0201f45 	stb	zero,-32643(gp)
  10171c:	05c00084 	movi	r23,2
  101720:	15c00526 	beq	r2,r23,101738 <main+0x10dc>
  101724:	00c000c4 	movi	r3,3
  101728:	10c00f26 	beq	r2,r3,101768 <main+0x110c>
  10172c:	00c00044 	movi	r3,1
  101730:	10c0251e 	bne	r2,r3,1017c8 <main+0x116c>
  101734:	00800044 	movi	r2,1
  101738:	01000834 	movhi	r4,32
  10173c:	d8000215 	stw	zero,8(sp)
  101740:	d8000115 	stw	zero,4(sp)
  101744:	d8000015 	stw	zero,0(sp)
  101748:	b00f883a 	mov	r7,r22
  10174c:	01800104 	movi	r6,4
  101750:	000b883a 	mov	r5,zero
  101754:	21085004 	addi	r4,r4,8512
  101758:	d0a01f85 	stb	r2,-32642(gp)
  10175c:	01031ec0 	call	1031ec <alt_avalon_spi_command>
  101760:	d8800a15 	stw	r2,40(sp)
  101764:	00001806 	br	1017c8 <main+0x116c>
  101768:	01000834 	movhi	r4,32
  10176c:	b00f883a 	mov	r7,r22
  101770:	01800104 	movi	r6,4
  101774:	000b883a 	mov	r5,zero
  101778:	21085004 	addi	r4,r4,8512
  10177c:	d8000215 	stw	zero,8(sp)
  101780:	d8000115 	stw	zero,4(sp)
  101784:	d8000015 	stw	zero,0(sp)
  101788:	d0a01f85 	stb	r2,-32642(gp)
  10178c:	01031ec0 	call	1031ec <alt_avalon_spi_command>
  101790:	01000834 	movhi	r4,32
  101794:	d8000215 	stw	zero,8(sp)
  101798:	dd800115 	stw	r22,4(sp)
  10179c:	ddc00015 	stw	r23,0(sp)
  1017a0:	b00f883a 	mov	r7,r22
  1017a4:	b80d883a 	mov	r6,r23
  1017a8:	000b883a 	mov	r5,zero
  1017ac:	21085004 	addi	r4,r4,8512
  1017b0:	d8800a15 	stw	r2,40(sp)
  1017b4:	d0201ec5 	stb	zero,-32645(gp)
  1017b8:	d5601f05 	stb	r21,-32644(gp)
  1017bc:	01031ec0 	call	1031ec <alt_avalon_spi_command>
  1017c0:	d8800a15 	stw	r2,40(sp)
  1017c4:	00007806 	br	1019a8 <main+0x134c>
  1017c8:	d0201e85 	stb	zero,-32646(gp)
  1017cc:	05400744 	movi	r21,29
  1017d0:	d5a01ec4 	addi	r22,gp,-32645
  1017d4:	05c000c4 	movi	r23,3
  1017d8:	d0a01e83 	ldbu	r2,-32646(gp)
  1017dc:	a8800f36 	bltu	r21,r2,10181c <main+0x11c0>
  1017e0:	01800084 	movi	r6,2
  1017e4:	01000834 	movhi	r4,32
  1017e8:	d8000215 	stw	zero,8(sp)
  1017ec:	dd800115 	stw	r22,4(sp)
  1017f0:	d9800015 	stw	r6,0(sp)
  1017f4:	d1e01ec4 	addi	r7,gp,-32645
  1017f8:	000b883a 	mov	r5,zero
  1017fc:	21085004 	addi	r4,r4,8512
  101800:	d0201ec5 	stb	zero,-32645(gp)
  101804:	d5e01f05 	stb	r23,-32644(gp)
  101808:	01031ec0 	call	1031ec <alt_avalon_spi_command>
  10180c:	d8800a15 	stw	r2,40(sp)
  101810:	d0a01f03 	ldbu	r2,-32644(gp)
  101814:	1080004c 	andi	r2,r2,1
  101818:	10000426 	beq	r2,zero,10182c <main+0x11d0>
  10181c:	d0201c05 	stb	zero,-32656(gp)
  101820:	054007c4 	movi	r21,31
  101824:	05bfe004 	movi	r22,-128
  101828:	00000606 	br	101844 <main+0x11e8>
  10182c:	d0a01e83 	ldbu	r2,-32646(gp)
  101830:	01000784 	movi	r4,30
  101834:	10800044 	addi	r2,r2,1
  101838:	d0a01e85 	stb	r2,-32646(gp)
  10183c:	010313c0 	call	10313c <usleep>
  101840:	003fe506 	br	1017d8 <_gp+0xffef8fe0>
  101844:	d0a01c03 	ldbu	r2,-32656(gp)
  101848:	a8801736 	bltu	r21,r2,1018a8 <main+0x124c>
  10184c:	00c00104 	movi	r3,4
  101850:	d0e01f05 	stb	r3,-32644(gp)
  101854:	d0e00417 	ldw	r3,-32752(gp)
  101858:	01000834 	movhi	r4,32
  10185c:	d1e01ec4 	addi	r7,gp,-32645
  101860:	1885883a 	add	r2,r3,r2
  101864:	10800283 	ldbu	r2,10(r2)
  101868:	01800104 	movi	r6,4
  10186c:	d8000215 	stw	zero,8(sp)
  101870:	d8000115 	stw	zero,4(sp)
  101874:	d8000015 	stw	zero,0(sp)
  101878:	000b883a 	mov	r5,zero
  10187c:	21085004 	addi	r4,r4,8512
  101880:	d5a01ec5 	stb	r22,-32645(gp)
  101884:	d0201f45 	stb	zero,-32643(gp)
  101888:	d0a01f85 	stb	r2,-32642(gp)
  10188c:	01031ec0 	call	1031ec <alt_avalon_spi_command>
  101890:	d8800a15 	stw	r2,40(sp)
  101894:	d0a01c03 	ldbu	r2,-32656(gp)
  101898:	d0201e85 	stb	zero,-32646(gp)
  10189c:	10800044 	addi	r2,r2,1
  1018a0:	d0a01c05 	stb	r2,-32656(gp)
  1018a4:	003fe706 	br	101844 <_gp+0xffef904c>
  1018a8:	d0201e85 	stb	zero,-32646(gp)
  1018ac:	d5a01ec4 	addi	r22,gp,-32645
  1018b0:	05c000c4 	movi	r23,3
  1018b4:	07000084 	movi	fp,2
  1018b8:	01000834 	movhi	r4,32
  1018bc:	d8000215 	stw	zero,8(sp)
  1018c0:	dd800115 	stw	r22,4(sp)
  1018c4:	df000015 	stw	fp,0(sp)
  1018c8:	d1e01ec4 	addi	r7,gp,-32645
  1018cc:	01800084 	movi	r6,2
  1018d0:	000b883a 	mov	r5,zero
  1018d4:	21085004 	addi	r4,r4,8512
  1018d8:	d0201ec5 	stb	zero,-32645(gp)
  1018dc:	d5e01f05 	stb	r23,-32644(gp)
  1018e0:	01031ec0 	call	1031ec <alt_avalon_spi_command>
  1018e4:	d8800a15 	stw	r2,40(sp)
  1018e8:	d0a01f03 	ldbu	r2,-32644(gp)
  1018ec:	d5601ec4 	addi	r21,gp,-32645
  1018f0:	1080004c 	andi	r2,r2,1
  1018f4:	1000061e 	bne	r2,zero,101910 <main+0x12b4>
  1018f8:	d0a01e83 	ldbu	r2,-32646(gp)
  1018fc:	01000784 	movi	r4,30
  101900:	10800044 	addi	r2,r2,1
  101904:	d0a01e85 	stb	r2,-32646(gp)
  101908:	010313c0 	call	10313c <usleep>
  10190c:	003fea06 	br	1018b8 <_gp+0xffef90c0>
  101910:	d0e02317 	ldw	r3,-32628(gp)
  101914:	00803fc4 	movi	r2,255
  101918:	1880211e 	bne	r3,r2,1019a0 <main+0x1344>
  10191c:	d0201e85 	stb	zero,-32646(gp)
  101920:	05800744 	movi	r22,29
  101924:	05c000c4 	movi	r23,3
  101928:	d0a01e83 	ldbu	r2,-32646(gp)
  10192c:	b0800f36 	bltu	r22,r2,10196c <main+0x1310>
  101930:	01800084 	movi	r6,2
  101934:	01000834 	movhi	r4,32
  101938:	d8000215 	stw	zero,8(sp)
  10193c:	dd400115 	stw	r21,4(sp)
  101940:	d9800015 	stw	r6,0(sp)
  101944:	d1e01ec4 	addi	r7,gp,-32645
  101948:	000b883a 	mov	r5,zero
  10194c:	21085004 	addi	r4,r4,8512
  101950:	d0201ec5 	stb	zero,-32645(gp)
  101954:	d5e01f05 	stb	r23,-32644(gp)
  101958:	01031ec0 	call	1031ec <alt_avalon_spi_command>
  10195c:	d8800a15 	stw	r2,40(sp)
  101960:	d0a01f03 	ldbu	r2,-32644(gp)
  101964:	1080100c 	andi	r2,r2,64
  101968:	10000726 	beq	r2,zero,101988 <main+0x132c>
  10196c:	d0e01e83 	ldbu	r3,-32646(gp)
  101970:	00800784 	movi	r2,30
  101974:	18800a1e 	bne	r3,r2,1019a0 <main+0x1344>
  101978:	d0a02443 	ldbu	r2,-32623(gp)
  10197c:	10800044 	addi	r2,r2,1
  101980:	d0a02445 	stb	r2,-32623(gp)
  101984:	00000606 	br	1019a0 <main+0x1344>
  101988:	d0a01e83 	ldbu	r2,-32646(gp)
  10198c:	01000784 	movi	r4,30
  101990:	10800044 	addi	r2,r2,1
  101994:	d0a01e85 	stb	r2,-32646(gp)
  101998:	010313c0 	call	10313c <usleep>
  10199c:	003fe206 	br	101928 <_gp+0xffef9130>
  1019a0:	d0a02317 	ldw	r2,-32628(gp)
  1019a4:	d0a02215 	stw	r2,-32632(gp)
  1019a8:	d0e02443 	ldbu	r3,-32623(gp)
  1019ac:	d0a00517 	ldw	r2,-32748(gp)
  1019b0:	18000226 	beq	r3,zero,1019bc <main+0x1360>
  1019b4:	00c00144 	movi	r3,5
  1019b8:	003c3606 	br	100a94 <_gp+0xffef829c>
  1019bc:	00c00044 	movi	r3,1
  1019c0:	003c3406 	br	100a94 <_gp+0xffef829c>
  1019c4:	00c00084 	movi	r3,2
  1019c8:	003c3206 	br	100a94 <_gp+0xffef829c>
  1019cc:	118b883a 	add	r5,r2,r6
  1019d0:	29400017 	ldw	r5,0(r5)
  1019d4:	21400035 	stwio	r5,0(r4)
  1019d8:	10800104 	addi	r2,r2,4
  1019dc:	10fffb1e 	bne	r2,r3,1019cc <_gp+0xffef91d4>
  1019e0:	d0e01317 	ldw	r3,-32692(gp)
  1019e4:	00800044 	movi	r2,1
  1019e8:	18bbe51e 	bne	r3,r2,100980 <_gp+0xffef8188>
  1019ec:	01004000 	call	100400 <boot_from_flash>
  1019f0:	003be306 	br	100980 <_gp+0xffef8188>

001019f4 <ReverseBitOrder>:
  1019f4:	21003fcc 	andi	r4,r4,255
  1019f8:	2004d07a 	srli	r2,r4,1
  1019fc:	2109883a 	add	r4,r4,r4
  101a00:	21002a8c 	andi	r4,r4,170
  101a04:	1080154c 	andi	r2,r2,85
  101a08:	2088b03a 	or	r4,r4,r2
  101a0c:	2004d0ba 	srli	r2,r4,2
  101a10:	2109883a 	add	r4,r4,r4
  101a14:	2109883a 	add	r4,r4,r4
  101a18:	10800ccc 	andi	r2,r2,51
  101a1c:	2100330c 	andi	r4,r4,204
  101a20:	2088b03a 	or	r4,r4,r2
  101a24:	2004d13a 	srli	r2,r4,4
  101a28:	2008913a 	slli	r4,r4,4
  101a2c:	1104b03a 	or	r2,r2,r4
  101a30:	f800283a 	ret

00101a34 <FlashSpiFastRead>:
  101a34:	d1202605 	stb	r4,-32616(gp)
  101a38:	f800283a 	ret

00101a3c <FlashSpiRead>:
  101a3c:	00800044 	movi	r2,1
  101a40:	d0a02605 	stb	r2,-32616(gp)
  101a44:	39ffffcc 	andi	r7,r7,65535
  101a48:	38001426 	beq	r7,zero,101a9c <FlashSpiRead+0x60>
  101a4c:	3004d43a 	srli	r2,r6,16
  101a50:	defffb04 	addi	sp,sp,-20
  101a54:	d98003c5 	stb	r6,15(sp)
  101a58:	d8800345 	stb	r2,13(sp)
  101a5c:	3004d23a 	srli	r2,r6,8
  101a60:	d9c00015 	stw	r7,0(sp)
  101a64:	d8000215 	stw	zero,8(sp)
  101a68:	d8800385 	stb	r2,14(sp)
  101a6c:	008000c4 	movi	r2,3
  101a70:	d8800305 	stb	r2,12(sp)
  101a74:	d8800517 	ldw	r2,20(sp)
  101a78:	d9c00304 	addi	r7,sp,12
  101a7c:	01800104 	movi	r6,4
  101a80:	d8800115 	stw	r2,4(sp)
  101a84:	dfc00415 	stw	ra,16(sp)
  101a88:	01031ec0 	call	1031ec <alt_avalon_spi_command>
  101a8c:	0005883a 	mov	r2,zero
  101a90:	dfc00417 	ldw	ra,16(sp)
  101a94:	dec00504 	addi	sp,sp,20
  101a98:	f800283a 	ret
  101a9c:	0005883a 	mov	r2,zero
  101aa0:	f800283a 	ret

00101aa4 <CyFxSpiWaitForStatus>:
  101aa4:	defff504 	addi	sp,sp,-44
  101aa8:	dd400915 	stw	r21,36(sp)
  101aac:	dd000815 	stw	r20,32(sp)
  101ab0:	dcc00715 	stw	r19,28(sp)
  101ab4:	dc800615 	stw	r18,24(sp)
  101ab8:	dc000415 	stw	r16,16(sp)
  101abc:	dfc00a15 	stw	ra,40(sp)
  101ac0:	dc400515 	stw	r17,20(sp)
  101ac4:	2025883a 	mov	r18,r4
  101ac8:	2827883a 	mov	r19,r5
  101acc:	0409c444 	movi	r16,10001
  101ad0:	05000184 	movi	r20,6
  101ad4:	05400144 	movi	r21,5
  101ad8:	d9c00384 	addi	r7,sp,14
  101adc:	01800044 	movi	r6,1
  101ae0:	980b883a 	mov	r5,r19
  101ae4:	9009883a 	mov	r4,r18
  101ae8:	d8000215 	stw	zero,8(sp)
  101aec:	d8000115 	stw	zero,4(sp)
  101af0:	d8000015 	stw	zero,0(sp)
  101af4:	dd000385 	stb	r20,14(sp)
  101af8:	01031ec0 	call	1031ec <alt_avalon_spi_command>
  101afc:	d8800304 	addi	r2,sp,12
  101b00:	04400084 	movi	r17,2
  101b04:	d8000215 	stw	zero,8(sp)
  101b08:	d8800115 	stw	r2,4(sp)
  101b0c:	dc400015 	stw	r17,0(sp)
  101b10:	d9c00384 	addi	r7,sp,14
  101b14:	01800044 	movi	r6,1
  101b18:	980b883a 	mov	r5,r19
  101b1c:	9009883a 	mov	r4,r18
  101b20:	843fffc4 	addi	r16,r16,-1
  101b24:	dd400385 	stb	r21,14(sp)
  101b28:	01031ec0 	call	1031ec <alt_avalon_spi_command>
  101b2c:	80000526 	beq	r16,zero,101b44 <CyFxSpiWaitForStatus+0xa0>
  101b30:	d8800303 	ldbu	r2,12(sp)
  101b34:	108000cc 	andi	r2,r2,3
  101b38:	147fe71e 	bne	r2,r17,101ad8 <_gp+0xffef92e0>
  101b3c:	0005883a 	mov	r2,zero
  101b40:	00000106 	br	101b48 <CyFxSpiWaitForStatus+0xa4>
  101b44:	00800044 	movi	r2,1
  101b48:	dfc00a17 	ldw	ra,40(sp)
  101b4c:	dd400917 	ldw	r21,36(sp)
  101b50:	dd000817 	ldw	r20,32(sp)
  101b54:	dcc00717 	ldw	r19,28(sp)
  101b58:	dc800617 	ldw	r18,24(sp)
  101b5c:	dc400517 	ldw	r17,20(sp)
  101b60:	dc000417 	ldw	r16,16(sp)
  101b64:	dec00b04 	addi	sp,sp,44
  101b68:	f800283a 	ret

00101b6c <FlashSpiTransfer>:
  101b6c:	defff204 	addi	sp,sp,-56
  101b70:	df000c15 	stw	fp,48(sp)
  101b74:	07000044 	movi	fp,1
  101b78:	dcc00715 	stw	r19,28(sp)
  101b7c:	dfc00d15 	stw	ra,52(sp)
  101b80:	ddc00b15 	stw	r23,44(sp)
  101b84:	dd800a15 	stw	r22,40(sp)
  101b88:	dd400915 	stw	r21,36(sp)
  101b8c:	dd000815 	stw	r20,32(sp)
  101b90:	dc800615 	stw	r18,24(sp)
  101b94:	dc400515 	stw	r17,20(sp)
  101b98:	dc000415 	stw	r16,16(sp)
  101b9c:	d7202605 	stb	fp,-32616(gp)
  101ba0:	3cffffcc 	andi	r19,r7,65535
  101ba4:	9800021e 	bne	r19,zero,101bb0 <FlashSpiTransfer+0x44>
  101ba8:	0005883a 	mov	r2,zero
  101bac:	00004106 	br	101cb4 <FlashSpiTransfer+0x148>
  101bb0:	39c03fcc 	andi	r7,r7,255
  101bb4:	38003e1e 	bne	r7,zero,101cb0 <FlashSpiTransfer+0x144>
  101bb8:	3020923a 	slli	r16,r6,8
  101bbc:	dd000e17 	ldw	r20,56(sp)
  101bc0:	9826d23a 	srli	r19,r19,8
  101bc4:	2825883a 	mov	r18,r5
  101bc8:	2023883a 	mov	r17,r4
  101bcc:	0039883a 	mov	fp,zero
  101bd0:	8521c83a 	sub	r16,r16,r20
  101bd4:	05400084 	movi	r21,2
  101bd8:	05800044 	movi	r22,1
  101bdc:	05c000c4 	movi	r23,3
  101be0:	98ffffcc 	andi	r3,r19,65535
  101be4:	a405883a 	add	r2,r20,r16
  101be8:	18003126 	beq	r3,zero,101cb0 <FlashSpiTransfer+0x144>
  101bec:	1006d43a 	srli	r3,r2,16
  101bf0:	1004d23a 	srli	r2,r2,8
  101bf4:	d80003c5 	stb	zero,15(sp)
  101bf8:	d8c00345 	stb	r3,13(sp)
  101bfc:	d8800385 	stb	r2,14(sp)
  101c00:	d8800f17 	ldw	r2,60(sp)
  101c04:	10001026 	beq	r2,zero,101c48 <FlashSpiTransfer+0xdc>
  101c08:	d0a02607 	ldb	r2,-32616(gp)
  101c0c:	ddc00305 	stb	r23,12(sp)
  101c10:	1000061e 	bne	r2,zero,101c2c <FlashSpiTransfer+0xc0>
  101c14:	900b883a 	mov	r5,r18
  101c18:	8809883a 	mov	r4,r17
  101c1c:	0101aa40 	call	101aa4 <CyFxSpiWaitForStatus>
  101c20:	1039883a 	mov	fp,r2
  101c24:	10803fcc 	andi	r2,r2,255
  101c28:	103fdf26 	beq	r2,zero,101ba8 <_gp+0xffef93b0>
  101c2c:	00804004 	movi	r2,256
  101c30:	d8000215 	stw	zero,8(sp)
  101c34:	dd000115 	stw	r20,4(sp)
  101c38:	d8800015 	stw	r2,0(sp)
  101c3c:	d9c00304 	addi	r7,sp,12
  101c40:	01800104 	movi	r6,4
  101c44:	00001406 	br	101c98 <FlashSpiTransfer+0x12c>
  101c48:	900b883a 	mov	r5,r18
  101c4c:	8809883a 	mov	r4,r17
  101c50:	dd400305 	stb	r21,12(sp)
  101c54:	0101aa40 	call	101aa4 <CyFxSpiWaitForStatus>
  101c58:	1039883a 	mov	fp,r2
  101c5c:	10803fcc 	andi	r2,r2,255
  101c60:	1000131e 	bne	r2,zero,101cb0 <FlashSpiTransfer+0x144>
  101c64:	d9c00304 	addi	r7,sp,12
  101c68:	01800104 	movi	r6,4
  101c6c:	dd800215 	stw	r22,8(sp)
  101c70:	d8000115 	stw	zero,4(sp)
  101c74:	d8000015 	stw	zero,0(sp)
  101c78:	900b883a 	mov	r5,r18
  101c7c:	8809883a 	mov	r4,r17
  101c80:	01031ec0 	call	1031ec <alt_avalon_spi_command>
  101c84:	a00f883a 	mov	r7,r20
  101c88:	d8000215 	stw	zero,8(sp)
  101c8c:	d8000115 	stw	zero,4(sp)
  101c90:	d8000015 	stw	zero,0(sp)
  101c94:	01804004 	movi	r6,256
  101c98:	900b883a 	mov	r5,r18
  101c9c:	8809883a 	mov	r4,r17
  101ca0:	01031ec0 	call	1031ec <alt_avalon_spi_command>
  101ca4:	a5004004 	addi	r20,r20,256
  101ca8:	9cffffc4 	addi	r19,r19,-1
  101cac:	003fcc06 	br	101be0 <_gp+0xffef93e8>
  101cb0:	e005883a 	mov	r2,fp
  101cb4:	dfc00d17 	ldw	ra,52(sp)
  101cb8:	df000c17 	ldw	fp,48(sp)
  101cbc:	ddc00b17 	ldw	r23,44(sp)
  101cc0:	dd800a17 	ldw	r22,40(sp)
  101cc4:	dd400917 	ldw	r21,36(sp)
  101cc8:	dd000817 	ldw	r20,32(sp)
  101ccc:	dcc00717 	ldw	r19,28(sp)
  101cd0:	dc800617 	ldw	r18,24(sp)
  101cd4:	dc400517 	ldw	r17,20(sp)
  101cd8:	dc000417 	ldw	r16,16(sp)
  101cdc:	dec00e04 	addi	sp,sp,56
  101ce0:	f800283a 	ret

00101ce4 <FlashSpiEraseSector>:
  101ce4:	defff504 	addi	sp,sp,-44
  101ce8:	dc000515 	stw	r16,20(sp)
  101cec:	3021883a 	mov	r16,r6
  101cf0:	dcc00815 	stw	r19,32(sp)
  101cf4:	00800184 	movi	r2,6
  101cf8:	3827883a 	mov	r19,r7
  101cfc:	d8000215 	stw	zero,8(sp)
  101d00:	d8000115 	stw	zero,4(sp)
  101d04:	d8000015 	stw	zero,0(sp)
  101d08:	d9c00304 	addi	r7,sp,12
  101d0c:	01800044 	movi	r6,1
  101d10:	84003fcc 	andi	r16,r16,255
  101d14:	dc800715 	stw	r18,28(sp)
  101d18:	dc400615 	stw	r17,24(sp)
  101d1c:	dfc00a15 	stw	ra,40(sp)
  101d20:	dd000915 	stw	r20,36(sp)
  101d24:	2023883a 	mov	r17,r4
  101d28:	2825883a 	mov	r18,r5
  101d2c:	d8800305 	stb	r2,12(sp)
  101d30:	01031ec0 	call	1031ec <alt_avalon_spi_command>
  101d34:	80000d26 	beq	r16,zero,101d6c <FlashSpiEraseSector+0x88>
  101d38:	00800804 	movi	r2,32
  101d3c:	d8000215 	stw	zero,8(sp)
  101d40:	d8000115 	stw	zero,4(sp)
  101d44:	d8000015 	stw	zero,0(sp)
  101d48:	d9c00304 	addi	r7,sp,12
  101d4c:	01800104 	movi	r6,4
  101d50:	900b883a 	mov	r5,r18
  101d54:	8809883a 	mov	r4,r17
  101d58:	d8800305 	stb	r2,12(sp)
  101d5c:	dcc00345 	stb	r19,13(sp)
  101d60:	d8000385 	stb	zero,14(sp)
  101d64:	d80003c5 	stb	zero,15(sp)
  101d68:	01031ec0 	call	1031ec <alt_avalon_spi_command>
  101d6c:	00800144 	movi	r2,5
  101d70:	04000bb4 	movhi	r16,46
  101d74:	d8800305 	stb	r2,12(sp)
  101d78:	8431b044 	addi	r16,r16,-14655
  101d7c:	04c00044 	movi	r19,1
  101d80:	dd000404 	addi	r20,sp,16
  101d84:	d8000215 	stw	zero,8(sp)
  101d88:	dd000115 	stw	r20,4(sp)
  101d8c:	dcc00015 	stw	r19,0(sp)
  101d90:	d9c00304 	addi	r7,sp,12
  101d94:	01800044 	movi	r6,1
  101d98:	900b883a 	mov	r5,r18
  101d9c:	8809883a 	mov	r4,r17
  101da0:	843fffc4 	addi	r16,r16,-1
  101da4:	01031ec0 	call	1031ec <alt_avalon_spi_command>
  101da8:	80000526 	beq	r16,zero,101dc0 <FlashSpiEraseSector+0xdc>
  101dac:	d8c00403 	ldbu	r3,16(sp)
  101db0:	18c0004c 	andi	r3,r3,1
  101db4:	1805883a 	mov	r2,r3
  101db8:	183ff21e 	bne	r3,zero,101d84 <_gp+0xffef958c>
  101dbc:	00000106 	br	101dc4 <FlashSpiEraseSector+0xe0>
  101dc0:	00800044 	movi	r2,1
  101dc4:	dfc00a17 	ldw	ra,40(sp)
  101dc8:	dd000917 	ldw	r20,36(sp)
  101dcc:	dcc00817 	ldw	r19,32(sp)
  101dd0:	dc800717 	ldw	r18,28(sp)
  101dd4:	dc400617 	ldw	r17,24(sp)
  101dd8:	dc000517 	ldw	r16,20(sp)
  101ddc:	dec00b04 	addi	sp,sp,44
  101de0:	f800283a 	ret

00101de4 <vctcxo_tamer_read>:
  101de4:	00800834 	movhi	r2,32
  101de8:	10880004 	addi	r2,r2,8192
  101dec:	21003fcc 	andi	r4,r4,255
  101df0:	2089883a 	add	r4,r4,r2
  101df4:	20800023 	ldbuio	r2,0(r4)
  101df8:	f800283a 	ret

00101dfc <vctcxo_tamer_write>:
  101dfc:	00800834 	movhi	r2,32
  101e00:	10880004 	addi	r2,r2,8192
  101e04:	21003fcc 	andi	r4,r4,255
  101e08:	2089883a 	add	r4,r4,r2
  101e0c:	21400025 	stbio	r5,0(r4)
  101e10:	f800283a 	ret

00101e14 <vctcxo_tamer_reset_counters>:
  101e14:	21003fcc 	andi	r4,r4,255
  101e18:	d0a02643 	ldbu	r2,-32615(gp)
  101e1c:	20000226 	beq	r4,zero,101e28 <vctcxo_tamer_reset_counters+0x14>
  101e20:	10800054 	ori	r2,r2,1
  101e24:	00000106 	br	101e2c <vctcxo_tamer_reset_counters+0x18>
  101e28:	10803f8c 	andi	r2,r2,254
  101e2c:	d0a02645 	stb	r2,-32615(gp)
  101e30:	d0e02643 	ldbu	r3,-32615(gp)
  101e34:	00800834 	movhi	r2,32
  101e38:	10880004 	addi	r2,r2,8192
  101e3c:	10c00025 	stbio	r3,0(r2)
  101e40:	f800283a 	ret

00101e44 <vctcxo_tamer_enable_isr>:
  101e44:	21003fcc 	andi	r4,r4,255
  101e48:	d0a02643 	ldbu	r2,-32615(gp)
  101e4c:	20000226 	beq	r4,zero,101e58 <vctcxo_tamer_enable_isr+0x14>
  101e50:	10800414 	ori	r2,r2,16
  101e54:	00000106 	br	101e5c <vctcxo_tamer_enable_isr+0x18>
  101e58:	10803bcc 	andi	r2,r2,239
  101e5c:	d0a02645 	stb	r2,-32615(gp)
  101e60:	d0e02643 	ldbu	r3,-32615(gp)
  101e64:	00800834 	movhi	r2,32
  101e68:	10880004 	addi	r2,r2,8192
  101e6c:	10c00025 	stbio	r3,0(r2)
  101e70:	f800283a 	ret

00101e74 <vctcxo_tamer_set_tune_mode.part.0>:
  101e74:	defffd04 	addi	sp,sp,-12
  101e78:	dc000015 	stw	r16,0(sp)
  101e7c:	2021883a 	mov	r16,r4
  101e80:	0009883a 	mov	r4,zero
  101e84:	dfc00215 	stw	ra,8(sp)
  101e88:	dc400115 	stw	r17,4(sp)
  101e8c:	0101e440 	call	101e44 <vctcxo_tamer_enable_isr>
  101e90:	80803fcc 	andi	r2,r16,255
  101e94:	100691ba 	slli	r3,r2,6
  101e98:	d0a02643 	ldbu	r2,-32615(gp)
  101e9c:	10800fcc 	andi	r2,r2,63
  101ea0:	1884b03a 	or	r2,r3,r2
  101ea4:	00c00834 	movhi	r3,32
  101ea8:	d0a02645 	stb	r2,-32615(gp)
  101eac:	18c80004 	addi	r3,r3,8192
  101eb0:	18800025 	stbio	r2,0(r3)
  101eb4:	04400044 	movi	r17,1
  101eb8:	8809883a 	mov	r4,r17
  101ebc:	0101e140 	call	101e14 <vctcxo_tamer_reset_counters>
  101ec0:	80000a26 	beq	r16,zero,101eec <vctcxo_tamer_set_tune_mode.part.0+0x78>
  101ec4:	0009883a 	mov	r4,zero
  101ec8:	843fffc4 	addi	r16,r16,-1
  101ecc:	0101e140 	call	101e14 <vctcxo_tamer_reset_counters>
  101ed0:	8c000636 	bltu	r17,r16,101eec <vctcxo_tamer_set_tune_mode.part.0+0x78>
  101ed4:	8809883a 	mov	r4,r17
  101ed8:	dfc00217 	ldw	ra,8(sp)
  101edc:	dc400117 	ldw	r17,4(sp)
  101ee0:	dc000017 	ldw	r16,0(sp)
  101ee4:	dec00304 	addi	sp,sp,12
  101ee8:	0101e441 	jmpi	101e44 <vctcxo_tamer_enable_isr>
  101eec:	dfc00217 	ldw	ra,8(sp)
  101ef0:	dc400117 	ldw	r17,4(sp)
  101ef4:	dc000017 	ldw	r16,0(sp)
  101ef8:	dec00304 	addi	sp,sp,12
  101efc:	f800283a 	ret

00101f00 <vctcxo_tamer_clear_isr>:
  101f00:	d0a02643 	ldbu	r2,-32615(gp)
  101f04:	00c00834 	movhi	r3,32
  101f08:	18c80004 	addi	r3,r3,8192
  101f0c:	10800814 	ori	r2,r2,32
  101f10:	18800025 	stbio	r2,0(r3)
  101f14:	f800283a 	ret

00101f18 <vctcxo_tamer_set_tune_mode>:
  101f18:	00800084 	movi	r2,2
  101f1c:	11000136 	bltu	r2,r4,101f24 <vctcxo_tamer_set_tune_mode+0xc>
  101f20:	0101e741 	jmpi	101e74 <vctcxo_tamer_set_tune_mode.part.0>
  101f24:	f800283a 	ret

00101f28 <vctcxo_tamer_read_count>:
  101f28:	01400834 	movhi	r5,32
  101f2c:	20803fcc 	andi	r2,r4,255
  101f30:	29480004 	addi	r5,r5,8192
  101f34:	1145883a 	add	r2,r2,r5
  101f38:	10800023 	ldbuio	r2,0(r2)
  101f3c:	11803fcc 	andi	r6,r2,255
  101f40:	20800044 	addi	r2,r4,1
  101f44:	10803fcc 	andi	r2,r2,255
  101f48:	1145883a 	add	r2,r2,r5
  101f4c:	10800023 	ldbuio	r2,0(r2)
  101f50:	20c00084 	addi	r3,r4,2
  101f54:	18c03fcc 	andi	r3,r3,255
  101f58:	10803fcc 	andi	r2,r2,255
  101f5c:	1947883a 	add	r3,r3,r5
  101f60:	18c00023 	ldbuio	r3,0(r3)
  101f64:	18c03fcc 	andi	r3,r3,255
  101f68:	1806943a 	slli	r3,r3,16
  101f6c:	1004923a 	slli	r2,r2,8
  101f70:	210000c4 	addi	r4,r4,3
  101f74:	21003fcc 	andi	r4,r4,255
  101f78:	10c4b03a 	or	r2,r2,r3
  101f7c:	1184b03a 	or	r2,r2,r6
  101f80:	2149883a 	add	r4,r4,r5
  101f84:	20c00023 	ldbuio	r3,0(r4)
  101f88:	1806963a 	slli	r3,r3,24
  101f8c:	1884b03a 	or	r2,r3,r2
  101f90:	f800283a 	ret

00101f94 <vctcxo_trim_dac_write>:
  101f94:	00800834 	movhi	r2,32
  101f98:	10880804 	addi	r2,r2,8224
  101f9c:	11400025 	stbio	r5,0(r2)
  101fa0:	297fffcc 	andi	r5,r5,65535
  101fa4:	280ad23a 	srli	r5,r5,8
  101fa8:	00800834 	movhi	r2,32
  101fac:	10880844 	addi	r2,r2,8225
  101fb0:	11400025 	stbio	r5,0(r2)
  101fb4:	f800283a 	ret

00101fb8 <vctcxo_tamer_isr>:
  101fb8:	defffd04 	addi	sp,sp,-12
  101fbc:	dc000015 	stw	r16,0(sp)
  101fc0:	2021883a 	mov	r16,r4
  101fc4:	0009883a 	mov	r4,zero
  101fc8:	dfc00215 	stw	ra,8(sp)
  101fcc:	dc400115 	stw	r17,4(sp)
  101fd0:	0101e440 	call	101e44 <vctcxo_tamer_enable_isr>
  101fd4:	04400044 	movi	r17,1
  101fd8:	8809883a 	mov	r4,r17
  101fdc:	0101e140 	call	101e14 <vctcxo_tamer_reset_counters>
  101fe0:	01000104 	movi	r4,4
  101fe4:	0101f280 	call	101f28 <vctcxo_tamer_read_count>
  101fe8:	80800115 	stw	r2,4(r16)
  101fec:	01000304 	movi	r4,12
  101ff0:	0101f280 	call	101f28 <vctcxo_tamer_read_count>
  101ff4:	80800315 	stw	r2,12(r16)
  101ff8:	01000504 	movi	r4,20
  101ffc:	0101f280 	call	101f28 <vctcxo_tamer_read_count>
  102000:	80800515 	stw	r2,20(r16)
  102004:	00800834 	movhi	r2,32
  102008:	10880044 	addi	r2,r2,8193
  10200c:	10c00023 	ldbuio	r3,0(r2)
  102010:	18c03fcc 	andi	r3,r3,255
  102014:	18803fcc 	andi	r2,r3,255
  102018:	1c46703a 	and	r3,r3,r17
  10201c:	80c00205 	stb	r3,8(r16)
  102020:	1446d83a 	srl	r3,r2,r17
  102024:	1004d0ba 	srli	r2,r2,2
  102028:	1c46703a 	and	r3,r3,r17
  10202c:	80c00405 	stb	r3,16(r16)
  102030:	1444703a 	and	r2,r2,r17
  102034:	80800605 	stb	r2,24(r16)
  102038:	0101f000 	call	101f00 <vctcxo_tamer_clear_isr>
  10203c:	84400005 	stb	r17,0(r16)
  102040:	dfc00217 	ldw	ra,8(sp)
  102044:	dc400117 	ldw	r17,4(sp)
  102048:	dc000017 	ldw	r16,0(sp)
  10204c:	dec00304 	addi	sp,sp,12
  102050:	f800283a 	ret

00102054 <vctcxo_tamer_init>:
  102054:	00800834 	movhi	r2,32
  102058:	10880704 	addi	r2,r2,8220
  10205c:	10000025 	stbio	zero,0(r2)
  102060:	01000044 	movi	r4,1
  102064:	0101e741 	jmpi	101e74 <vctcxo_tamer_set_tune_mode.part.0>

00102068 <vctcxo_tamer_dis>:
  102068:	deffff04 	addi	sp,sp,-4
  10206c:	0009883a 	mov	r4,zero
  102070:	dfc00015 	stw	ra,0(sp)
  102074:	0101e740 	call	101e74 <vctcxo_tamer_set_tune_mode.part.0>
  102078:	00800834 	movhi	r2,32
  10207c:	10880704 	addi	r2,r2,8220
  102080:	10000025 	stbio	zero,0(r2)
  102084:	dfc00017 	ldw	ra,0(sp)
  102088:	dec00104 	addi	sp,sp,4
  10208c:	f800283a 	ret

00102090 <lroundf>:
  102090:	20dfe02c 	andhi	r3,r4,32640
  102094:	1806d5fa 	srli	r3,r3,23
  102098:	deffff04 	addi	sp,sp,-4
  10209c:	dfc00015 	stw	ra,0(sp)
  1020a0:	18ffe044 	addi	r3,r3,-127
  1020a4:	20001416 	blt	r4,zero,1020f8 <lroundf+0x68>
  1020a8:	01400044 	movi	r5,1
  1020ac:	00800784 	movi	r2,30
  1020b0:	10c00d16 	blt	r2,r3,1020e8 <lroundf+0x58>
  1020b4:	18001916 	blt	r3,zero,10211c <lroundf+0x8c>
  1020b8:	00802034 	movhi	r2,128
  1020bc:	10bfffc4 	addi	r2,r2,-1
  1020c0:	1108703a 	and	r4,r2,r4
  1020c4:	00800584 	movi	r2,22
  1020c8:	21002034 	orhi	r4,r4,128
  1020cc:	10c00c0e 	bge	r2,r3,102100 <lroundf+0x70>
  1020d0:	18fffa44 	addi	r3,r3,-23
  1020d4:	20c8983a 	sll	r4,r4,r3
  1020d8:	01022f00 	call	1022f0 <__mulsi3>
  1020dc:	dfc00017 	ldw	ra,0(sp)
  1020e0:	dec00104 	addi	sp,sp,4
  1020e4:	f800283a 	ret
  1020e8:	0102b880 	call	102b88 <__fixsfsi>
  1020ec:	dfc00017 	ldw	ra,0(sp)
  1020f0:	dec00104 	addi	sp,sp,4
  1020f4:	f800283a 	ret
  1020f8:	017fffc4 	movi	r5,-1
  1020fc:	003feb06 	br	1020ac <_gp+0xffef98b4>
  102100:	01801034 	movhi	r6,64
  102104:	30cdd83a 	sra	r6,r6,r3
  102108:	008005c4 	movi	r2,23
  10210c:	10c7c83a 	sub	r3,r2,r3
  102110:	3109883a 	add	r4,r6,r4
  102114:	20c8d83a 	srl	r4,r4,r3
  102118:	003fef06 	br	1020d8 <_gp+0xffef98e0>
  10211c:	00bfffc4 	movi	r2,-1
  102120:	1880041e 	bne	r3,r2,102134 <lroundf+0xa4>
  102124:	2805883a 	mov	r2,r5
  102128:	dfc00017 	ldw	ra,0(sp)
  10212c:	dec00104 	addi	sp,sp,4
  102130:	f800283a 	ret
  102134:	0005883a 	mov	r2,zero
  102138:	003fe806 	br	1020dc <_gp+0xffef98e4>

0010213c <__divsi3>:
  10213c:	20001b16 	blt	r4,zero,1021ac <__divsi3+0x70>
  102140:	000f883a 	mov	r7,zero
  102144:	28001616 	blt	r5,zero,1021a0 <__divsi3+0x64>
  102148:	200d883a 	mov	r6,r4
  10214c:	29001a2e 	bgeu	r5,r4,1021b8 <__divsi3+0x7c>
  102150:	00800804 	movi	r2,32
  102154:	00c00044 	movi	r3,1
  102158:	00000106 	br	102160 <__divsi3+0x24>
  10215c:	10000d26 	beq	r2,zero,102194 <__divsi3+0x58>
  102160:	294b883a 	add	r5,r5,r5
  102164:	10bfffc4 	addi	r2,r2,-1
  102168:	18c7883a 	add	r3,r3,r3
  10216c:	293ffb36 	bltu	r5,r4,10215c <_gp+0xffef9964>
  102170:	0005883a 	mov	r2,zero
  102174:	18000726 	beq	r3,zero,102194 <__divsi3+0x58>
  102178:	0005883a 	mov	r2,zero
  10217c:	31400236 	bltu	r6,r5,102188 <__divsi3+0x4c>
  102180:	314dc83a 	sub	r6,r6,r5
  102184:	10c4b03a 	or	r2,r2,r3
  102188:	1806d07a 	srli	r3,r3,1
  10218c:	280ad07a 	srli	r5,r5,1
  102190:	183ffa1e 	bne	r3,zero,10217c <_gp+0xffef9984>
  102194:	38000126 	beq	r7,zero,10219c <__divsi3+0x60>
  102198:	0085c83a 	sub	r2,zero,r2
  10219c:	f800283a 	ret
  1021a0:	014bc83a 	sub	r5,zero,r5
  1021a4:	39c0005c 	xori	r7,r7,1
  1021a8:	003fe706 	br	102148 <_gp+0xffef9950>
  1021ac:	0109c83a 	sub	r4,zero,r4
  1021b0:	01c00044 	movi	r7,1
  1021b4:	003fe306 	br	102144 <_gp+0xffef994c>
  1021b8:	00c00044 	movi	r3,1
  1021bc:	003fee06 	br	102178 <_gp+0xffef9980>

001021c0 <__modsi3>:
  1021c0:	20001716 	blt	r4,zero,102220 <__modsi3+0x60>
  1021c4:	000f883a 	mov	r7,zero
  1021c8:	2005883a 	mov	r2,r4
  1021cc:	28001216 	blt	r5,zero,102218 <__modsi3+0x58>
  1021d0:	2900162e 	bgeu	r5,r4,10222c <__modsi3+0x6c>
  1021d4:	01800804 	movi	r6,32
  1021d8:	00c00044 	movi	r3,1
  1021dc:	00000106 	br	1021e4 <__modsi3+0x24>
  1021e0:	30000a26 	beq	r6,zero,10220c <__modsi3+0x4c>
  1021e4:	294b883a 	add	r5,r5,r5
  1021e8:	31bfffc4 	addi	r6,r6,-1
  1021ec:	18c7883a 	add	r3,r3,r3
  1021f0:	293ffb36 	bltu	r5,r4,1021e0 <_gp+0xffef99e8>
  1021f4:	18000526 	beq	r3,zero,10220c <__modsi3+0x4c>
  1021f8:	1806d07a 	srli	r3,r3,1
  1021fc:	11400136 	bltu	r2,r5,102204 <__modsi3+0x44>
  102200:	1145c83a 	sub	r2,r2,r5
  102204:	280ad07a 	srli	r5,r5,1
  102208:	183ffb1e 	bne	r3,zero,1021f8 <_gp+0xffef9a00>
  10220c:	38000126 	beq	r7,zero,102214 <__modsi3+0x54>
  102210:	0085c83a 	sub	r2,zero,r2
  102214:	f800283a 	ret
  102218:	014bc83a 	sub	r5,zero,r5
  10221c:	003fec06 	br	1021d0 <_gp+0xffef99d8>
  102220:	0109c83a 	sub	r4,zero,r4
  102224:	01c00044 	movi	r7,1
  102228:	003fe706 	br	1021c8 <_gp+0xffef99d0>
  10222c:	00c00044 	movi	r3,1
  102230:	003ff106 	br	1021f8 <_gp+0xffef9a00>

00102234 <__udivsi3>:
  102234:	200d883a 	mov	r6,r4
  102238:	2900152e 	bgeu	r5,r4,102290 <__udivsi3+0x5c>
  10223c:	28001416 	blt	r5,zero,102290 <__udivsi3+0x5c>
  102240:	00800804 	movi	r2,32
  102244:	00c00044 	movi	r3,1
  102248:	00000206 	br	102254 <__udivsi3+0x20>
  10224c:	10000e26 	beq	r2,zero,102288 <__udivsi3+0x54>
  102250:	28000516 	blt	r5,zero,102268 <__udivsi3+0x34>
  102254:	294b883a 	add	r5,r5,r5
  102258:	10bfffc4 	addi	r2,r2,-1
  10225c:	18c7883a 	add	r3,r3,r3
  102260:	293ffa36 	bltu	r5,r4,10224c <_gp+0xffef9a54>
  102264:	18000826 	beq	r3,zero,102288 <__udivsi3+0x54>
  102268:	0005883a 	mov	r2,zero
  10226c:	31400236 	bltu	r6,r5,102278 <__udivsi3+0x44>
  102270:	314dc83a 	sub	r6,r6,r5
  102274:	10c4b03a 	or	r2,r2,r3
  102278:	1806d07a 	srli	r3,r3,1
  10227c:	280ad07a 	srli	r5,r5,1
  102280:	183ffa1e 	bne	r3,zero,10226c <_gp+0xffef9a74>
  102284:	f800283a 	ret
  102288:	0005883a 	mov	r2,zero
  10228c:	f800283a 	ret
  102290:	00c00044 	movi	r3,1
  102294:	003ff406 	br	102268 <_gp+0xffef9a70>

00102298 <__umodsi3>:
  102298:	2005883a 	mov	r2,r4
  10229c:	2900122e 	bgeu	r5,r4,1022e8 <__umodsi3+0x50>
  1022a0:	28001116 	blt	r5,zero,1022e8 <__umodsi3+0x50>
  1022a4:	01800804 	movi	r6,32
  1022a8:	00c00044 	movi	r3,1
  1022ac:	00000206 	br	1022b8 <__umodsi3+0x20>
  1022b0:	30000c26 	beq	r6,zero,1022e4 <__umodsi3+0x4c>
  1022b4:	28000516 	blt	r5,zero,1022cc <__umodsi3+0x34>
  1022b8:	294b883a 	add	r5,r5,r5
  1022bc:	31bfffc4 	addi	r6,r6,-1
  1022c0:	18c7883a 	add	r3,r3,r3
  1022c4:	293ffa36 	bltu	r5,r4,1022b0 <_gp+0xffef9ab8>
  1022c8:	18000626 	beq	r3,zero,1022e4 <__umodsi3+0x4c>
  1022cc:	1806d07a 	srli	r3,r3,1
  1022d0:	11400136 	bltu	r2,r5,1022d8 <__umodsi3+0x40>
  1022d4:	1145c83a 	sub	r2,r2,r5
  1022d8:	280ad07a 	srli	r5,r5,1
  1022dc:	183ffb1e 	bne	r3,zero,1022cc <_gp+0xffef9ad4>
  1022e0:	f800283a 	ret
  1022e4:	f800283a 	ret
  1022e8:	00c00044 	movi	r3,1
  1022ec:	003ff706 	br	1022cc <_gp+0xffef9ad4>

001022f0 <__mulsi3>:
  1022f0:	0005883a 	mov	r2,zero
  1022f4:	20000726 	beq	r4,zero,102314 <__mulsi3+0x24>
  1022f8:	20c0004c 	andi	r3,r4,1
  1022fc:	2008d07a 	srli	r4,r4,1
  102300:	18000126 	beq	r3,zero,102308 <__mulsi3+0x18>
  102304:	1145883a 	add	r2,r2,r5
  102308:	294b883a 	add	r5,r5,r5
  10230c:	203ffa1e 	bne	r4,zero,1022f8 <_gp+0xffef9b00>
  102310:	f800283a 	ret
  102314:	f800283a 	ret

00102318 <__divsf3>:
  102318:	defff504 	addi	sp,sp,-44
  10231c:	200cd5fa 	srli	r6,r4,23
  102320:	dcc00415 	stw	r19,16(sp)
  102324:	2026d7fa 	srli	r19,r4,31
  102328:	00c02034 	movhi	r3,128
  10232c:	dd800715 	stw	r22,28(sp)
  102330:	dd000515 	stw	r20,20(sp)
  102334:	dc800315 	stw	r18,12(sp)
  102338:	18ffffc4 	addi	r3,r3,-1
  10233c:	dfc00a15 	stw	ra,40(sp)
  102340:	df000915 	stw	fp,36(sp)
  102344:	ddc00815 	stw	r23,32(sp)
  102348:	dd400615 	stw	r21,24(sp)
  10234c:	dc400215 	stw	r17,8(sp)
  102350:	dc000115 	stw	r16,4(sp)
  102354:	35003fcc 	andi	r20,r6,255
  102358:	1924703a 	and	r18,r3,r4
  10235c:	9d803fcc 	andi	r22,r19,255
  102360:	a0005226 	beq	r20,zero,1024ac <__divsf3+0x194>
  102364:	00803fc4 	movi	r2,255
  102368:	a0802e26 	beq	r20,r2,102424 <__divsf3+0x10c>
  10236c:	91002034 	orhi	r4,r18,128
  102370:	202490fa 	slli	r18,r4,3
  102374:	a53fe044 	addi	r20,r20,-127
  102378:	0021883a 	mov	r16,zero
  10237c:	002f883a 	mov	r23,zero
  102380:	280cd5fa 	srli	r6,r5,23
  102384:	282ad7fa 	srli	r21,r5,31
  102388:	00c02034 	movhi	r3,128
  10238c:	18ffffc4 	addi	r3,r3,-1
  102390:	31803fcc 	andi	r6,r6,255
  102394:	1962703a 	and	r17,r3,r5
  102398:	af003fcc 	andi	fp,r21,255
  10239c:	30004a26 	beq	r6,zero,1024c8 <__divsf3+0x1b0>
  1023a0:	00803fc4 	movi	r2,255
  1023a4:	30804526 	beq	r6,r2,1024bc <__divsf3+0x1a4>
  1023a8:	89402034 	orhi	r5,r17,128
  1023ac:	282290fa 	slli	r17,r5,3
  1023b0:	31bfe044 	addi	r6,r6,-127
  1023b4:	000b883a 	mov	r5,zero
  1023b8:	2c20b03a 	or	r16,r5,r16
  1023bc:	802090ba 	slli	r16,r16,2
  1023c0:	00800434 	movhi	r2,16
  1023c4:	1088f904 	addi	r2,r2,9188
  1023c8:	80a1883a 	add	r16,r16,r2
  1023cc:	81000017 	ldw	r4,0(r16)
  1023d0:	9d46f03a 	xor	r3,r19,r21
  1023d4:	180f883a 	mov	r7,r3
  1023d8:	18803fcc 	andi	r2,r3,255
  1023dc:	a18dc83a 	sub	r6,r20,r6
  1023e0:	2000683a 	jmp	r4
  1023e4:	001025c8 	cmpgei	zero,zero,16535
  1023e8:	0010244c 	andi	zero,zero,16529
  1023ec:	001025bc 	xorhi	zero,zero,16534
  1023f0:	00102438 	rdprs	zero,zero,16528
  1023f4:	001025bc 	xorhi	zero,zero,16534
  1023f8:	00102594 	movui	zero,16534
  1023fc:	001025bc 	xorhi	zero,zero,16534
  102400:	00102438 	rdprs	zero,zero,16528
  102404:	0010244c 	andi	zero,zero,16529
  102408:	0010244c 	andi	zero,zero,16529
  10240c:	00102594 	movui	zero,16534
  102410:	00102438 	rdprs	zero,zero,16528
  102414:	001026a8 	cmpgeui	zero,zero,16538
  102418:	001026a8 	cmpgeui	zero,zero,16538
  10241c:	001026a8 	cmpgeui	zero,zero,16538
  102420:	0010265c 	xori	zero,zero,16537
  102424:	9000581e 	bne	r18,zero,102588 <__divsf3+0x270>
  102428:	04000204 	movi	r16,8
  10242c:	05c00084 	movi	r23,2
  102430:	003fd306 	br	102380 <_gp+0xffef9b88>
  102434:	0023883a 	mov	r17,zero
  102438:	e02d883a 	mov	r22,fp
  10243c:	282f883a 	mov	r23,r5
  102440:	00800084 	movi	r2,2
  102444:	b8808f1e 	bne	r23,r2,102684 <__divsf3+0x36c>
  102448:	b005883a 	mov	r2,r22
  10244c:	11c0004c 	andi	r7,r2,1
  102450:	013fffc4 	movi	r4,-1
  102454:	000d883a 	mov	r6,zero
  102458:	21003fcc 	andi	r4,r4,255
  10245c:	200895fa 	slli	r4,r4,23
  102460:	38803fcc 	andi	r2,r7,255
  102464:	00c02034 	movhi	r3,128
  102468:	100497fa 	slli	r2,r2,31
  10246c:	18ffffc4 	addi	r3,r3,-1
  102470:	30c6703a 	and	r3,r6,r3
  102474:	1906b03a 	or	r3,r3,r4
  102478:	1884b03a 	or	r2,r3,r2
  10247c:	dfc00a17 	ldw	ra,40(sp)
  102480:	df000917 	ldw	fp,36(sp)
  102484:	ddc00817 	ldw	r23,32(sp)
  102488:	dd800717 	ldw	r22,28(sp)
  10248c:	dd400617 	ldw	r21,24(sp)
  102490:	dd000517 	ldw	r20,20(sp)
  102494:	dcc00417 	ldw	r19,16(sp)
  102498:	dc800317 	ldw	r18,12(sp)
  10249c:	dc400217 	ldw	r17,8(sp)
  1024a0:	dc000117 	ldw	r16,4(sp)
  1024a4:	dec00b04 	addi	sp,sp,44
  1024a8:	f800283a 	ret
  1024ac:	90002b1e 	bne	r18,zero,10255c <__divsf3+0x244>
  1024b0:	04000104 	movi	r16,4
  1024b4:	05c00044 	movi	r23,1
  1024b8:	003fb106 	br	102380 <_gp+0xffef9b88>
  1024bc:	8800251e 	bne	r17,zero,102554 <__divsf3+0x23c>
  1024c0:	01400084 	movi	r5,2
  1024c4:	00000206 	br	1024d0 <__divsf3+0x1b8>
  1024c8:	88001a1e 	bne	r17,zero,102534 <__divsf3+0x21c>
  1024cc:	01400044 	movi	r5,1
  1024d0:	8160b03a 	or	r16,r16,r5
  1024d4:	802090ba 	slli	r16,r16,2
  1024d8:	00c00434 	movhi	r3,16
  1024dc:	18c93d04 	addi	r3,r3,9460
  1024e0:	80e1883a 	add	r16,r16,r3
  1024e4:	80c00017 	ldw	r3,0(r16)
  1024e8:	9d44f03a 	xor	r2,r19,r21
  1024ec:	a18dc83a 	sub	r6,r20,r6
  1024f0:	1800683a 	jmp	r3
  1024f4:	0010244c 	andi	zero,zero,16529
  1024f8:	0010244c 	andi	zero,zero,16529
  1024fc:	00102698 	cmpnei	zero,zero,16538
  102500:	00102434 	movhi	zero,16528
  102504:	00102698 	cmpnei	zero,zero,16538
  102508:	00102594 	movui	zero,16534
  10250c:	00102698 	cmpnei	zero,zero,16538
  102510:	00102434 	movhi	zero,16528
  102514:	0010244c 	andi	zero,zero,16529
  102518:	0010244c 	andi	zero,zero,16529
  10251c:	00102594 	movui	zero,16534
  102520:	00102434 	movhi	zero,16528
  102524:	001026a8 	cmpgeui	zero,zero,16538
  102528:	001026a8 	cmpgeui	zero,zero,16538
  10252c:	001026a8 	cmpgeui	zero,zero,16538
  102530:	001026c0 	call	1026c <__alt_mem_onchip_flash_0_data-0xefd94>
  102534:	8809883a 	mov	r4,r17
  102538:	0102d1c0 	call	102d1c <__clzsi2>
  10253c:	10fffec4 	addi	r3,r2,-5
  102540:	10801d84 	addi	r2,r2,118
  102544:	88e2983a 	sll	r17,r17,r3
  102548:	008dc83a 	sub	r6,zero,r2
  10254c:	000b883a 	mov	r5,zero
  102550:	003f9906 	br	1023b8 <_gp+0xffef9bc0>
  102554:	014000c4 	movi	r5,3
  102558:	003f9706 	br	1023b8 <_gp+0xffef9bc0>
  10255c:	9009883a 	mov	r4,r18
  102560:	d9400015 	stw	r5,0(sp)
  102564:	0102d1c0 	call	102d1c <__clzsi2>
  102568:	10fffec4 	addi	r3,r2,-5
  10256c:	11801d84 	addi	r6,r2,118
  102570:	90e4983a 	sll	r18,r18,r3
  102574:	01a9c83a 	sub	r20,zero,r6
  102578:	0021883a 	mov	r16,zero
  10257c:	002f883a 	mov	r23,zero
  102580:	d9400017 	ldw	r5,0(sp)
  102584:	003f7e06 	br	102380 <_gp+0xffef9b88>
  102588:	04000304 	movi	r16,12
  10258c:	05c000c4 	movi	r23,3
  102590:	003f7b06 	br	102380 <_gp+0xffef9b88>
  102594:	01802034 	movhi	r6,128
  102598:	000f883a 	mov	r7,zero
  10259c:	31bfffc4 	addi	r6,r6,-1
  1025a0:	013fffc4 	movi	r4,-1
  1025a4:	003fac06 	br	102458 <_gp+0xffef9c60>
  1025a8:	01400044 	movi	r5,1
  1025ac:	2909c83a 	sub	r4,r5,r4
  1025b0:	00c006c4 	movi	r3,27
  1025b4:	19004b0e 	bge	r3,r4,1026e4 <__divsf3+0x3cc>
  1025b8:	114e703a 	and	r7,r2,r5
  1025bc:	0009883a 	mov	r4,zero
  1025c0:	000d883a 	mov	r6,zero
  1025c4:	003fa406 	br	102458 <_gp+0xffef9c60>
  1025c8:	9006917a 	slli	r3,r18,5
  1025cc:	8822917a 	slli	r17,r17,5
  1025d0:	1c40372e 	bgeu	r3,r17,1026b0 <__divsf3+0x398>
  1025d4:	31bfffc4 	addi	r6,r6,-1
  1025d8:	010006c4 	movi	r4,27
  1025dc:	000b883a 	mov	r5,zero
  1025e0:	180f883a 	mov	r7,r3
  1025e4:	294b883a 	add	r5,r5,r5
  1025e8:	18c7883a 	add	r3,r3,r3
  1025ec:	38000116 	blt	r7,zero,1025f4 <__divsf3+0x2dc>
  1025f0:	1c400236 	bltu	r3,r17,1025fc <__divsf3+0x2e4>
  1025f4:	1c47c83a 	sub	r3,r3,r17
  1025f8:	29400054 	ori	r5,r5,1
  1025fc:	213fffc4 	addi	r4,r4,-1
  102600:	203ff71e 	bne	r4,zero,1025e0 <_gp+0xffef9de8>
  102604:	1806c03a 	cmpne	r3,r3,zero
  102608:	1962b03a 	or	r17,r3,r5
  10260c:	31001fc4 	addi	r4,r6,127
  102610:	013fe50e 	bge	zero,r4,1025a8 <_gp+0xffef9db0>
  102614:	88c001cc 	andi	r3,r17,7
  102618:	18000426 	beq	r3,zero,10262c <__divsf3+0x314>
  10261c:	88c003cc 	andi	r3,r17,15
  102620:	01400104 	movi	r5,4
  102624:	19400126 	beq	r3,r5,10262c <__divsf3+0x314>
  102628:	8963883a 	add	r17,r17,r5
  10262c:	88c2002c 	andhi	r3,r17,2048
  102630:	18000426 	beq	r3,zero,102644 <__divsf3+0x32c>
  102634:	00fe0034 	movhi	r3,63488
  102638:	18ffffc4 	addi	r3,r3,-1
  10263c:	31002004 	addi	r4,r6,128
  102640:	88e2703a 	and	r17,r17,r3
  102644:	00c03f84 	movi	r3,254
  102648:	193f8016 	blt	r3,r4,10244c <_gp+0xffef9c54>
  10264c:	880c91ba 	slli	r6,r17,6
  102650:	11c0004c 	andi	r7,r2,1
  102654:	300cd27a 	srli	r6,r6,9
  102658:	003f7f06 	br	102458 <_gp+0xffef9c60>
  10265c:	9080102c 	andhi	r2,r18,64
  102660:	10000226 	beq	r2,zero,10266c <__divsf3+0x354>
  102664:	8880102c 	andhi	r2,r17,64
  102668:	10001826 	beq	r2,zero,1026cc <__divsf3+0x3b4>
  10266c:	00802034 	movhi	r2,128
  102670:	91801034 	orhi	r6,r18,64
  102674:	10bfffc4 	addi	r2,r2,-1
  102678:	980f883a 	mov	r7,r19
  10267c:	308c703a 	and	r6,r6,r2
  102680:	003fc706 	br	1025a0 <_gp+0xffef9da8>
  102684:	008000c4 	movi	r2,3
  102688:	b8802d26 	beq	r23,r2,102740 <__divsf3+0x428>
  10268c:	00c00044 	movi	r3,1
  102690:	b005883a 	mov	r2,r22
  102694:	b8ffdd1e 	bne	r23,r3,10260c <_gp+0xffef9e14>
  102698:	11c0004c 	andi	r7,r2,1
  10269c:	0009883a 	mov	r4,zero
  1026a0:	000d883a 	mov	r6,zero
  1026a4:	003f6c06 	br	102458 <_gp+0xffef9c60>
  1026a8:	9023883a 	mov	r17,r18
  1026ac:	003f6406 	br	102440 <_gp+0xffef9c48>
  1026b0:	1c47c83a 	sub	r3,r3,r17
  1026b4:	01000684 	movi	r4,26
  1026b8:	01400044 	movi	r5,1
  1026bc:	003fc806 	br	1025e0 <_gp+0xffef9de8>
  1026c0:	9080102c 	andhi	r2,r18,64
  1026c4:	103fe926 	beq	r2,zero,10266c <_gp+0xffef9e74>
  1026c8:	0023883a 	mov	r17,zero
  1026cc:	00802034 	movhi	r2,128
  1026d0:	89801034 	orhi	r6,r17,64
  1026d4:	10bfffc4 	addi	r2,r2,-1
  1026d8:	a80f883a 	mov	r7,r21
  1026dc:	308c703a 	and	r6,r6,r2
  1026e0:	003faf06 	br	1025a0 <_gp+0xffef9da8>
  1026e4:	01c00804 	movi	r7,32
  1026e8:	390fc83a 	sub	r7,r7,r4
  1026ec:	89ce983a 	sll	r7,r17,r7
  1026f0:	890ad83a 	srl	r5,r17,r4
  1026f4:	380ec03a 	cmpne	r7,r7,zero
  1026f8:	29cab03a 	or	r5,r5,r7
  1026fc:	28c001cc 	andi	r3,r5,7
  102700:	18000426 	beq	r3,zero,102714 <__divsf3+0x3fc>
  102704:	28c003cc 	andi	r3,r5,15
  102708:	01000104 	movi	r4,4
  10270c:	19000126 	beq	r3,r4,102714 <__divsf3+0x3fc>
  102710:	290b883a 	add	r5,r5,r4
  102714:	28c1002c 	andhi	r3,r5,1024
  102718:	18000426 	beq	r3,zero,10272c <__divsf3+0x414>
  10271c:	11c0004c 	andi	r7,r2,1
  102720:	01000044 	movi	r4,1
  102724:	000d883a 	mov	r6,zero
  102728:	003f4b06 	br	102458 <_gp+0xffef9c60>
  10272c:	280a91ba 	slli	r5,r5,6
  102730:	11c0004c 	andi	r7,r2,1
  102734:	0009883a 	mov	r4,zero
  102738:	280cd27a 	srli	r6,r5,9
  10273c:	003f4606 	br	102458 <_gp+0xffef9c60>
  102740:	00802034 	movhi	r2,128
  102744:	89801034 	orhi	r6,r17,64
  102748:	10bfffc4 	addi	r2,r2,-1
  10274c:	b00f883a 	mov	r7,r22
  102750:	308c703a 	and	r6,r6,r2
  102754:	003f9206 	br	1025a0 <_gp+0xffef9da8>

00102758 <__mulsf3>:
  102758:	defff504 	addi	sp,sp,-44
  10275c:	dc000115 	stw	r16,4(sp)
  102760:	2020d5fa 	srli	r16,r4,23
  102764:	dd400615 	stw	r21,24(sp)
  102768:	202ad7fa 	srli	r21,r4,31
  10276c:	dc800315 	stw	r18,12(sp)
  102770:	04802034 	movhi	r18,128
  102774:	df000915 	stw	fp,36(sp)
  102778:	dd000515 	stw	r20,20(sp)
  10277c:	94bfffc4 	addi	r18,r18,-1
  102780:	dfc00a15 	stw	ra,40(sp)
  102784:	ddc00815 	stw	r23,32(sp)
  102788:	dd800715 	stw	r22,28(sp)
  10278c:	dcc00415 	stw	r19,16(sp)
  102790:	dc400215 	stw	r17,8(sp)
  102794:	84003fcc 	andi	r16,r16,255
  102798:	9124703a 	and	r18,r18,r4
  10279c:	a829883a 	mov	r20,r21
  1027a0:	af003fcc 	andi	fp,r21,255
  1027a4:	80005426 	beq	r16,zero,1028f8 <__mulsf3+0x1a0>
  1027a8:	00803fc4 	movi	r2,255
  1027ac:	80802f26 	beq	r16,r2,10286c <__mulsf3+0x114>
  1027b0:	91002034 	orhi	r4,r18,128
  1027b4:	202490fa 	slli	r18,r4,3
  1027b8:	843fe044 	addi	r16,r16,-127
  1027bc:	0023883a 	mov	r17,zero
  1027c0:	002f883a 	mov	r23,zero
  1027c4:	2804d5fa 	srli	r2,r5,23
  1027c8:	282cd7fa 	srli	r22,r5,31
  1027cc:	01002034 	movhi	r4,128
  1027d0:	213fffc4 	addi	r4,r4,-1
  1027d4:	10803fcc 	andi	r2,r2,255
  1027d8:	2166703a 	and	r19,r4,r5
  1027dc:	b1803fcc 	andi	r6,r22,255
  1027e0:	10004c26 	beq	r2,zero,102914 <__mulsf3+0x1bc>
  1027e4:	00c03fc4 	movi	r3,255
  1027e8:	10c04726 	beq	r2,r3,102908 <__mulsf3+0x1b0>
  1027ec:	99002034 	orhi	r4,r19,128
  1027f0:	202690fa 	slli	r19,r4,3
  1027f4:	10bfe044 	addi	r2,r2,-127
  1027f8:	0007883a 	mov	r3,zero
  1027fc:	80a1883a 	add	r16,r16,r2
  102800:	010003c4 	movi	r4,15
  102804:	1c44b03a 	or	r2,r3,r17
  102808:	b56af03a 	xor	r21,r22,r21
  10280c:	81c00044 	addi	r7,r16,1
  102810:	20806b36 	bltu	r4,r2,1029c0 <__mulsf3+0x268>
  102814:	100490ba 	slli	r2,r2,2
  102818:	01000434 	movhi	r4,16
  10281c:	210a0b04 	addi	r4,r4,10284
  102820:	1105883a 	add	r2,r2,r4
  102824:	10800017 	ldw	r2,0(r2)
  102828:	1000683a 	jmp	r2
  10282c:	001029c0 	call	1029c <__alt_mem_onchip_flash_0_data-0xefd64>
  102830:	00102880 	call	10288 <__alt_mem_onchip_flash_0_data-0xefd78>
  102834:	00102880 	call	10288 <__alt_mem_onchip_flash_0_data-0xefd78>
  102838:	0010287c 	xorhi	zero,zero,16545
  10283c:	001029a4 	muli	zero,zero,16550
  102840:	001029a4 	muli	zero,zero,16550
  102844:	00102990 	cmplti	zero,zero,16550
  102848:	0010287c 	xorhi	zero,zero,16545
  10284c:	001029a4 	muli	zero,zero,16550
  102850:	00102990 	cmplti	zero,zero,16550
  102854:	001029a4 	muli	zero,zero,16550
  102858:	0010287c 	xorhi	zero,zero,16545
  10285c:	001029b0 	cmpltui	zero,zero,16550
  102860:	001029b0 	cmpltui	zero,zero,16550
  102864:	001029b0 	cmpltui	zero,zero,16550
  102868:	00102ac0 	call	102ac <__alt_mem_onchip_flash_0_data-0xefd54>
  10286c:	90003b1e 	bne	r18,zero,10295c <__mulsf3+0x204>
  102870:	04400204 	movi	r17,8
  102874:	05c00084 	movi	r23,2
  102878:	003fd206 	br	1027c4 <_gp+0xffef9fcc>
  10287c:	302b883a 	mov	r21,r6
  102880:	00800084 	movi	r2,2
  102884:	18802626 	beq	r3,r2,102920 <__mulsf3+0x1c8>
  102888:	008000c4 	movi	r2,3
  10288c:	1880b826 	beq	r3,r2,102b70 <__mulsf3+0x418>
  102890:	00800044 	movi	r2,1
  102894:	1880af1e 	bne	r3,r2,102b54 <__mulsf3+0x3fc>
  102898:	a829883a 	mov	r20,r21
  10289c:	0007883a 	mov	r3,zero
  1028a0:	0009883a 	mov	r4,zero
  1028a4:	18803fcc 	andi	r2,r3,255
  1028a8:	100695fa 	slli	r3,r2,23
  1028ac:	a0803fcc 	andi	r2,r20,255
  1028b0:	100a97fa 	slli	r5,r2,31
  1028b4:	00802034 	movhi	r2,128
  1028b8:	10bfffc4 	addi	r2,r2,-1
  1028bc:	2084703a 	and	r2,r4,r2
  1028c0:	10c4b03a 	or	r2,r2,r3
  1028c4:	1144b03a 	or	r2,r2,r5
  1028c8:	dfc00a17 	ldw	ra,40(sp)
  1028cc:	df000917 	ldw	fp,36(sp)
  1028d0:	ddc00817 	ldw	r23,32(sp)
  1028d4:	dd800717 	ldw	r22,28(sp)
  1028d8:	dd400617 	ldw	r21,24(sp)
  1028dc:	dd000517 	ldw	r20,20(sp)
  1028e0:	dcc00417 	ldw	r19,16(sp)
  1028e4:	dc800317 	ldw	r18,12(sp)
  1028e8:	dc400217 	ldw	r17,8(sp)
  1028ec:	dc000117 	ldw	r16,4(sp)
  1028f0:	dec00b04 	addi	sp,sp,44
  1028f4:	f800283a 	ret
  1028f8:	90000d1e 	bne	r18,zero,102930 <__mulsf3+0x1d8>
  1028fc:	04400104 	movi	r17,4
  102900:	05c00044 	movi	r23,1
  102904:	003faf06 	br	1027c4 <_gp+0xffef9fcc>
  102908:	9806c03a 	cmpne	r3,r19,zero
  10290c:	18c00084 	addi	r3,r3,2
  102910:	003fba06 	br	1027fc <_gp+0xffefa004>
  102914:	9800141e 	bne	r19,zero,102968 <__mulsf3+0x210>
  102918:	00c00044 	movi	r3,1
  10291c:	003fb706 	br	1027fc <_gp+0xffefa004>
  102920:	a829883a 	mov	r20,r21
  102924:	00ffffc4 	movi	r3,-1
  102928:	0009883a 	mov	r4,zero
  10292c:	003fdd06 	br	1028a4 <_gp+0xffefa0ac>
  102930:	9009883a 	mov	r4,r18
  102934:	d9400015 	stw	r5,0(sp)
  102938:	0102d1c0 	call	102d1c <__clzsi2>
  10293c:	10fffec4 	addi	r3,r2,-5
  102940:	10801d84 	addi	r2,r2,118
  102944:	90e4983a 	sll	r18,r18,r3
  102948:	00a1c83a 	sub	r16,zero,r2
  10294c:	0023883a 	mov	r17,zero
  102950:	002f883a 	mov	r23,zero
  102954:	d9400017 	ldw	r5,0(sp)
  102958:	003f9a06 	br	1027c4 <_gp+0xffef9fcc>
  10295c:	04400304 	movi	r17,12
  102960:	05c000c4 	movi	r23,3
  102964:	003f9706 	br	1027c4 <_gp+0xffef9fcc>
  102968:	9809883a 	mov	r4,r19
  10296c:	d9800015 	stw	r6,0(sp)
  102970:	0102d1c0 	call	102d1c <__clzsi2>
  102974:	10fffec4 	addi	r3,r2,-5
  102978:	10801d84 	addi	r2,r2,118
  10297c:	98e6983a 	sll	r19,r19,r3
  102980:	0085c83a 	sub	r2,zero,r2
  102984:	0007883a 	mov	r3,zero
  102988:	d9800017 	ldw	r6,0(sp)
  10298c:	003f9b06 	br	1027fc <_gp+0xffefa004>
  102990:	01002034 	movhi	r4,128
  102994:	0029883a 	mov	r20,zero
  102998:	213fffc4 	addi	r4,r4,-1
  10299c:	00ffffc4 	movi	r3,-1
  1029a0:	003fc006 	br	1028a4 <_gp+0xffefa0ac>
  1029a4:	9027883a 	mov	r19,r18
  1029a8:	b807883a 	mov	r3,r23
  1029ac:	003fb406 	br	102880 <_gp+0xffefa088>
  1029b0:	9027883a 	mov	r19,r18
  1029b4:	e02b883a 	mov	r21,fp
  1029b8:	b807883a 	mov	r3,r23
  1029bc:	003fb006 	br	102880 <_gp+0xffefa088>
  1029c0:	9028d43a 	srli	r20,r18,16
  1029c4:	982cd43a 	srli	r22,r19,16
  1029c8:	94bfffcc 	andi	r18,r18,65535
  1029cc:	9cffffcc 	andi	r19,r19,65535
  1029d0:	980b883a 	mov	r5,r19
  1029d4:	9009883a 	mov	r4,r18
  1029d8:	d9c00015 	stw	r7,0(sp)
  1029dc:	01022f00 	call	1022f0 <__mulsi3>
  1029e0:	a00b883a 	mov	r5,r20
  1029e4:	9809883a 	mov	r4,r19
  1029e8:	1023883a 	mov	r17,r2
  1029ec:	01022f00 	call	1022f0 <__mulsi3>
  1029f0:	a009883a 	mov	r4,r20
  1029f4:	b00b883a 	mov	r5,r22
  1029f8:	1027883a 	mov	r19,r2
  1029fc:	01022f00 	call	1022f0 <__mulsi3>
  102a00:	b00b883a 	mov	r5,r22
  102a04:	9009883a 	mov	r4,r18
  102a08:	1029883a 	mov	r20,r2
  102a0c:	01022f00 	call	1022f0 <__mulsi3>
  102a10:	8806d43a 	srli	r3,r17,16
  102a14:	14c5883a 	add	r2,r2,r19
  102a18:	d9c00017 	ldw	r7,0(sp)
  102a1c:	1885883a 	add	r2,r3,r2
  102a20:	14c0022e 	bgeu	r2,r19,102a2c <__mulsf3+0x2d4>
  102a24:	00c00074 	movhi	r3,1
  102a28:	a0e9883a 	add	r20,r20,r3
  102a2c:	1026943a 	slli	r19,r2,16
  102a30:	8c7fffcc 	andi	r17,r17,65535
  102a34:	1004d43a 	srli	r2,r2,16
  102a38:	9c63883a 	add	r17,r19,r17
  102a3c:	882691ba 	slli	r19,r17,6
  102a40:	1505883a 	add	r2,r2,r20
  102a44:	8822d6ba 	srli	r17,r17,26
  102a48:	100891ba 	slli	r4,r2,6
  102a4c:	9826c03a 	cmpne	r19,r19,zero
  102a50:	9c62b03a 	or	r17,r19,r17
  102a54:	8926b03a 	or	r19,r17,r4
  102a58:	9882002c 	andhi	r2,r19,2048
  102a5c:	10000426 	beq	r2,zero,102a70 <__mulsf3+0x318>
  102a60:	9804d07a 	srli	r2,r19,1
  102a64:	9900004c 	andi	r4,r19,1
  102a68:	3821883a 	mov	r16,r7
  102a6c:	1126b03a 	or	r19,r2,r4
  102a70:	80c01fc4 	addi	r3,r16,127
  102a74:	00c0210e 	bge	zero,r3,102afc <__mulsf3+0x3a4>
  102a78:	988001cc 	andi	r2,r19,7
  102a7c:	10000426 	beq	r2,zero,102a90 <__mulsf3+0x338>
  102a80:	988003cc 	andi	r2,r19,15
  102a84:	01000104 	movi	r4,4
  102a88:	11000126 	beq	r2,r4,102a90 <__mulsf3+0x338>
  102a8c:	9927883a 	add	r19,r19,r4
  102a90:	9882002c 	andhi	r2,r19,2048
  102a94:	10000426 	beq	r2,zero,102aa8 <__mulsf3+0x350>
  102a98:	00be0034 	movhi	r2,63488
  102a9c:	10bfffc4 	addi	r2,r2,-1
  102aa0:	80c02004 	addi	r3,r16,128
  102aa4:	98a6703a 	and	r19,r19,r2
  102aa8:	00803f84 	movi	r2,254
  102aac:	10ff9c16 	blt	r2,r3,102920 <_gp+0xffefa128>
  102ab0:	980891ba 	slli	r4,r19,6
  102ab4:	a829883a 	mov	r20,r21
  102ab8:	2008d27a 	srli	r4,r4,9
  102abc:	003f7906 	br	1028a4 <_gp+0xffefa0ac>
  102ac0:	9080102c 	andhi	r2,r18,64
  102ac4:	10000826 	beq	r2,zero,102ae8 <__mulsf3+0x390>
  102ac8:	9880102c 	andhi	r2,r19,64
  102acc:	1000061e 	bne	r2,zero,102ae8 <__mulsf3+0x390>
  102ad0:	00802034 	movhi	r2,128
  102ad4:	99001034 	orhi	r4,r19,64
  102ad8:	10bfffc4 	addi	r2,r2,-1
  102adc:	b029883a 	mov	r20,r22
  102ae0:	2088703a 	and	r4,r4,r2
  102ae4:	003fad06 	br	10299c <_gp+0xffefa1a4>
  102ae8:	00802034 	movhi	r2,128
  102aec:	91001034 	orhi	r4,r18,64
  102af0:	10bfffc4 	addi	r2,r2,-1
  102af4:	2088703a 	and	r4,r4,r2
  102af8:	003fa806 	br	10299c <_gp+0xffefa1a4>
  102afc:	00800044 	movi	r2,1
  102b00:	10c7c83a 	sub	r3,r2,r3
  102b04:	008006c4 	movi	r2,27
  102b08:	10ff6316 	blt	r2,r3,102898 <_gp+0xffefa0a0>
  102b0c:	00800804 	movi	r2,32
  102b10:	10c5c83a 	sub	r2,r2,r3
  102b14:	9884983a 	sll	r2,r19,r2
  102b18:	98c6d83a 	srl	r3,r19,r3
  102b1c:	1004c03a 	cmpne	r2,r2,zero
  102b20:	1884b03a 	or	r2,r3,r2
  102b24:	10c001cc 	andi	r3,r2,7
  102b28:	18000426 	beq	r3,zero,102b3c <__mulsf3+0x3e4>
  102b2c:	10c003cc 	andi	r3,r2,15
  102b30:	01000104 	movi	r4,4
  102b34:	19000126 	beq	r3,r4,102b3c <__mulsf3+0x3e4>
  102b38:	1105883a 	add	r2,r2,r4
  102b3c:	10c1002c 	andhi	r3,r2,1024
  102b40:	18000626 	beq	r3,zero,102b5c <__mulsf3+0x404>
  102b44:	a829883a 	mov	r20,r21
  102b48:	00c00044 	movi	r3,1
  102b4c:	0009883a 	mov	r4,zero
  102b50:	003f5406 	br	1028a4 <_gp+0xffefa0ac>
  102b54:	3821883a 	mov	r16,r7
  102b58:	003fc506 	br	102a70 <_gp+0xffefa278>
  102b5c:	100491ba 	slli	r2,r2,6
  102b60:	a829883a 	mov	r20,r21
  102b64:	0007883a 	mov	r3,zero
  102b68:	1008d27a 	srli	r4,r2,9
  102b6c:	003f4d06 	br	1028a4 <_gp+0xffefa0ac>
  102b70:	00802034 	movhi	r2,128
  102b74:	99001034 	orhi	r4,r19,64
  102b78:	10bfffc4 	addi	r2,r2,-1
  102b7c:	a829883a 	mov	r20,r21
  102b80:	2088703a 	and	r4,r4,r2
  102b84:	003f8506 	br	10299c <_gp+0xffefa1a4>

00102b88 <__fixsfsi>:
  102b88:	200ad5fa 	srli	r5,r4,23
  102b8c:	00c02034 	movhi	r3,128
  102b90:	18ffffc4 	addi	r3,r3,-1
  102b94:	29403fcc 	andi	r5,r5,255
  102b98:	00801f84 	movi	r2,126
  102b9c:	1906703a 	and	r3,r3,r4
  102ba0:	2008d7fa 	srli	r4,r4,31
  102ba4:	11400e0e 	bge	r2,r5,102be0 <__fixsfsi+0x58>
  102ba8:	00802744 	movi	r2,157
  102bac:	11400816 	blt	r2,r5,102bd0 <__fixsfsi+0x48>
  102bb0:	00802544 	movi	r2,149
  102bb4:	18c02034 	orhi	r3,r3,128
  102bb8:	11400b0e 	bge	r2,r5,102be8 <__fixsfsi+0x60>
  102bbc:	28bfda84 	addi	r2,r5,-150
  102bc0:	1884983a 	sll	r2,r3,r2
  102bc4:	20000726 	beq	r4,zero,102be4 <__fixsfsi+0x5c>
  102bc8:	0085c83a 	sub	r2,zero,r2
  102bcc:	f800283a 	ret
  102bd0:	00a00034 	movhi	r2,32768
  102bd4:	10bfffc4 	addi	r2,r2,-1
  102bd8:	2085883a 	add	r2,r4,r2
  102bdc:	f800283a 	ret
  102be0:	0005883a 	mov	r2,zero
  102be4:	f800283a 	ret
  102be8:	00802584 	movi	r2,150
  102bec:	1145c83a 	sub	r2,r2,r5
  102bf0:	1884d83a 	srl	r2,r3,r2
  102bf4:	003ff306 	br	102bc4 <_gp+0xffefa3cc>

00102bf8 <__floatsisf>:
  102bf8:	defffd04 	addi	sp,sp,-12
  102bfc:	dfc00215 	stw	ra,8(sp)
  102c00:	dc400115 	stw	r17,4(sp)
  102c04:	dc000015 	stw	r16,0(sp)
  102c08:	20003526 	beq	r4,zero,102ce0 <__floatsisf+0xe8>
  102c0c:	2021883a 	mov	r16,r4
  102c10:	2022d7fa 	srli	r17,r4,31
  102c14:	20003616 	blt	r4,zero,102cf0 <__floatsisf+0xf8>
  102c18:	8009883a 	mov	r4,r16
  102c1c:	0102d1c0 	call	102d1c <__clzsi2>
  102c20:	00c02784 	movi	r3,158
  102c24:	1887c83a 	sub	r3,r3,r2
  102c28:	01002584 	movi	r4,150
  102c2c:	20c01416 	blt	r4,r3,102c80 <__floatsisf+0x88>
  102c30:	20c9c83a 	sub	r4,r4,r3
  102c34:	8120983a 	sll	r16,r16,r4
  102c38:	00802034 	movhi	r2,128
  102c3c:	10bfffc4 	addi	r2,r2,-1
  102c40:	8809883a 	mov	r4,r17
  102c44:	80a0703a 	and	r16,r16,r2
  102c48:	18803fcc 	andi	r2,r3,255
  102c4c:	100695fa 	slli	r3,r2,23
  102c50:	20803fcc 	andi	r2,r4,255
  102c54:	100897fa 	slli	r4,r2,31
  102c58:	00802034 	movhi	r2,128
  102c5c:	10bfffc4 	addi	r2,r2,-1
  102c60:	8084703a 	and	r2,r16,r2
  102c64:	10c4b03a 	or	r2,r2,r3
  102c68:	1104b03a 	or	r2,r2,r4
  102c6c:	dfc00217 	ldw	ra,8(sp)
  102c70:	dc400117 	ldw	r17,4(sp)
  102c74:	dc000017 	ldw	r16,0(sp)
  102c78:	dec00304 	addi	sp,sp,12
  102c7c:	f800283a 	ret
  102c80:	01002644 	movi	r4,153
  102c84:	20c01c16 	blt	r4,r3,102cf8 <__floatsisf+0x100>
  102c88:	20c9c83a 	sub	r4,r4,r3
  102c8c:	8120983a 	sll	r16,r16,r4
  102c90:	013f0034 	movhi	r4,64512
  102c94:	213fffc4 	addi	r4,r4,-1
  102c98:	814001cc 	andi	r5,r16,7
  102c9c:	8108703a 	and	r4,r16,r4
  102ca0:	28000426 	beq	r5,zero,102cb4 <__floatsisf+0xbc>
  102ca4:	840003cc 	andi	r16,r16,15
  102ca8:	01400104 	movi	r5,4
  102cac:	81400126 	beq	r16,r5,102cb4 <__floatsisf+0xbc>
  102cb0:	2149883a 	add	r4,r4,r5
  102cb4:	2141002c 	andhi	r5,r4,1024
  102cb8:	28000526 	beq	r5,zero,102cd0 <__floatsisf+0xd8>
  102cbc:	00c027c4 	movi	r3,159
  102cc0:	1887c83a 	sub	r3,r3,r2
  102cc4:	00bf0034 	movhi	r2,64512
  102cc8:	10bfffc4 	addi	r2,r2,-1
  102ccc:	2088703a 	and	r4,r4,r2
  102cd0:	202091ba 	slli	r16,r4,6
  102cd4:	8809883a 	mov	r4,r17
  102cd8:	8020d27a 	srli	r16,r16,9
  102cdc:	003fda06 	br	102c48 <_gp+0xffefa450>
  102ce0:	0009883a 	mov	r4,zero
  102ce4:	0007883a 	mov	r3,zero
  102ce8:	0021883a 	mov	r16,zero
  102cec:	003fd606 	br	102c48 <_gp+0xffefa450>
  102cf0:	0121c83a 	sub	r16,zero,r4
  102cf4:	003fc806 	br	102c18 <_gp+0xffefa420>
  102cf8:	01002e44 	movi	r4,185
  102cfc:	20c9c83a 	sub	r4,r4,r3
  102d00:	01400144 	movi	r5,5
  102d04:	8108983a 	sll	r4,r16,r4
  102d08:	288bc83a 	sub	r5,r5,r2
  102d0c:	8160d83a 	srl	r16,r16,r5
  102d10:	2008c03a 	cmpne	r4,r4,zero
  102d14:	8120b03a 	or	r16,r16,r4
  102d18:	003fdd06 	br	102c90 <_gp+0xffefa498>

00102d1c <__clzsi2>:
  102d1c:	00bfffd4 	movui	r2,65535
  102d20:	11000536 	bltu	r2,r4,102d38 <__clzsi2+0x1c>
  102d24:	00803fc4 	movi	r2,255
  102d28:	11000f36 	bltu	r2,r4,102d68 <__clzsi2+0x4c>
  102d2c:	00800804 	movi	r2,32
  102d30:	0007883a 	mov	r3,zero
  102d34:	00000506 	br	102d4c <__clzsi2+0x30>
  102d38:	00804034 	movhi	r2,256
  102d3c:	10bfffc4 	addi	r2,r2,-1
  102d40:	11000c2e 	bgeu	r2,r4,102d74 <__clzsi2+0x58>
  102d44:	00800204 	movi	r2,8
  102d48:	00c00604 	movi	r3,24
  102d4c:	20c8d83a 	srl	r4,r4,r3
  102d50:	00c00834 	movhi	r3,32
  102d54:	18c00004 	addi	r3,r3,0
  102d58:	1909883a 	add	r4,r3,r4
  102d5c:	20c00003 	ldbu	r3,0(r4)
  102d60:	10c5c83a 	sub	r2,r2,r3
  102d64:	f800283a 	ret
  102d68:	00800604 	movi	r2,24
  102d6c:	00c00204 	movi	r3,8
  102d70:	003ff606 	br	102d4c <_gp+0xffefa554>
  102d74:	00800404 	movi	r2,16
  102d78:	1007883a 	mov	r3,r2
  102d7c:	003ff306 	br	102d4c <_gp+0xffefa554>

00102d80 <memcpy>:
  102d80:	defffd04 	addi	sp,sp,-12
  102d84:	dfc00215 	stw	ra,8(sp)
  102d88:	dc400115 	stw	r17,4(sp)
  102d8c:	dc000015 	stw	r16,0(sp)
  102d90:	00c003c4 	movi	r3,15
  102d94:	2005883a 	mov	r2,r4
  102d98:	1980452e 	bgeu	r3,r6,102eb0 <memcpy+0x130>
  102d9c:	2906b03a 	or	r3,r5,r4
  102da0:	18c000cc 	andi	r3,r3,3
  102da4:	1800441e 	bne	r3,zero,102eb8 <memcpy+0x138>
  102da8:	347ffc04 	addi	r17,r6,-16
  102dac:	8822d13a 	srli	r17,r17,4
  102db0:	28c00104 	addi	r3,r5,4
  102db4:	23400104 	addi	r13,r4,4
  102db8:	8820913a 	slli	r16,r17,4
  102dbc:	2b000204 	addi	r12,r5,8
  102dc0:	22c00204 	addi	r11,r4,8
  102dc4:	84000504 	addi	r16,r16,20
  102dc8:	2a800304 	addi	r10,r5,12
  102dcc:	22400304 	addi	r9,r4,12
  102dd0:	2c21883a 	add	r16,r5,r16
  102dd4:	2811883a 	mov	r8,r5
  102dd8:	200f883a 	mov	r7,r4
  102ddc:	41000017 	ldw	r4,0(r8)
  102de0:	1fc00017 	ldw	ra,0(r3)
  102de4:	63c00017 	ldw	r15,0(r12)
  102de8:	39000015 	stw	r4,0(r7)
  102dec:	53800017 	ldw	r14,0(r10)
  102df0:	6fc00015 	stw	ra,0(r13)
  102df4:	5bc00015 	stw	r15,0(r11)
  102df8:	4b800015 	stw	r14,0(r9)
  102dfc:	18c00404 	addi	r3,r3,16
  102e00:	39c00404 	addi	r7,r7,16
  102e04:	42000404 	addi	r8,r8,16
  102e08:	6b400404 	addi	r13,r13,16
  102e0c:	63000404 	addi	r12,r12,16
  102e10:	5ac00404 	addi	r11,r11,16
  102e14:	52800404 	addi	r10,r10,16
  102e18:	4a400404 	addi	r9,r9,16
  102e1c:	1c3fef1e 	bne	r3,r16,102ddc <_gp+0xffefa5e4>
  102e20:	89c00044 	addi	r7,r17,1
  102e24:	380e913a 	slli	r7,r7,4
  102e28:	310003cc 	andi	r4,r6,15
  102e2c:	02c000c4 	movi	r11,3
  102e30:	11c7883a 	add	r3,r2,r7
  102e34:	29cb883a 	add	r5,r5,r7
  102e38:	5900212e 	bgeu	r11,r4,102ec0 <memcpy+0x140>
  102e3c:	1813883a 	mov	r9,r3
  102e40:	2811883a 	mov	r8,r5
  102e44:	200f883a 	mov	r7,r4
  102e48:	42800017 	ldw	r10,0(r8)
  102e4c:	4a400104 	addi	r9,r9,4
  102e50:	39ffff04 	addi	r7,r7,-4
  102e54:	4abfff15 	stw	r10,-4(r9)
  102e58:	42000104 	addi	r8,r8,4
  102e5c:	59fffa36 	bltu	r11,r7,102e48 <_gp+0xffefa650>
  102e60:	213fff04 	addi	r4,r4,-4
  102e64:	2008d0ba 	srli	r4,r4,2
  102e68:	318000cc 	andi	r6,r6,3
  102e6c:	21000044 	addi	r4,r4,1
  102e70:	2109883a 	add	r4,r4,r4
  102e74:	2109883a 	add	r4,r4,r4
  102e78:	1907883a 	add	r3,r3,r4
  102e7c:	290b883a 	add	r5,r5,r4
  102e80:	30000626 	beq	r6,zero,102e9c <memcpy+0x11c>
  102e84:	198d883a 	add	r6,r3,r6
  102e88:	29c00003 	ldbu	r7,0(r5)
  102e8c:	18c00044 	addi	r3,r3,1
  102e90:	29400044 	addi	r5,r5,1
  102e94:	19ffffc5 	stb	r7,-1(r3)
  102e98:	19bffb1e 	bne	r3,r6,102e88 <_gp+0xffefa690>
  102e9c:	dfc00217 	ldw	ra,8(sp)
  102ea0:	dc400117 	ldw	r17,4(sp)
  102ea4:	dc000017 	ldw	r16,0(sp)
  102ea8:	dec00304 	addi	sp,sp,12
  102eac:	f800283a 	ret
  102eb0:	2007883a 	mov	r3,r4
  102eb4:	003ff206 	br	102e80 <_gp+0xffefa688>
  102eb8:	2007883a 	mov	r3,r4
  102ebc:	003ff106 	br	102e84 <_gp+0xffefa68c>
  102ec0:	200d883a 	mov	r6,r4
  102ec4:	003fee06 	br	102e80 <_gp+0xffefa688>

00102ec8 <memset>:
  102ec8:	20c000cc 	andi	r3,r4,3
  102ecc:	2005883a 	mov	r2,r4
  102ed0:	18004426 	beq	r3,zero,102fe4 <memset+0x11c>
  102ed4:	31ffffc4 	addi	r7,r6,-1
  102ed8:	30004026 	beq	r6,zero,102fdc <memset+0x114>
  102edc:	2813883a 	mov	r9,r5
  102ee0:	200d883a 	mov	r6,r4
  102ee4:	2007883a 	mov	r3,r4
  102ee8:	00000406 	br	102efc <memset+0x34>
  102eec:	3a3fffc4 	addi	r8,r7,-1
  102ef0:	31800044 	addi	r6,r6,1
  102ef4:	38003926 	beq	r7,zero,102fdc <memset+0x114>
  102ef8:	400f883a 	mov	r7,r8
  102efc:	18c00044 	addi	r3,r3,1
  102f00:	32400005 	stb	r9,0(r6)
  102f04:	1a0000cc 	andi	r8,r3,3
  102f08:	403ff81e 	bne	r8,zero,102eec <_gp+0xffefa6f4>
  102f0c:	010000c4 	movi	r4,3
  102f10:	21c02d2e 	bgeu	r4,r7,102fc8 <memset+0x100>
  102f14:	29003fcc 	andi	r4,r5,255
  102f18:	200c923a 	slli	r6,r4,8
  102f1c:	3108b03a 	or	r4,r6,r4
  102f20:	200c943a 	slli	r6,r4,16
  102f24:	218cb03a 	or	r6,r4,r6
  102f28:	010003c4 	movi	r4,15
  102f2c:	21c0182e 	bgeu	r4,r7,102f90 <memset+0xc8>
  102f30:	3b3ffc04 	addi	r12,r7,-16
  102f34:	6018d13a 	srli	r12,r12,4
  102f38:	1a000104 	addi	r8,r3,4
  102f3c:	1ac00204 	addi	r11,r3,8
  102f40:	6008913a 	slli	r4,r12,4
  102f44:	1a800304 	addi	r10,r3,12
  102f48:	1813883a 	mov	r9,r3
  102f4c:	21000504 	addi	r4,r4,20
  102f50:	1909883a 	add	r4,r3,r4
  102f54:	49800015 	stw	r6,0(r9)
  102f58:	41800015 	stw	r6,0(r8)
  102f5c:	59800015 	stw	r6,0(r11)
  102f60:	51800015 	stw	r6,0(r10)
  102f64:	42000404 	addi	r8,r8,16
  102f68:	4a400404 	addi	r9,r9,16
  102f6c:	5ac00404 	addi	r11,r11,16
  102f70:	52800404 	addi	r10,r10,16
  102f74:	413ff71e 	bne	r8,r4,102f54 <_gp+0xffefa75c>
  102f78:	63000044 	addi	r12,r12,1
  102f7c:	6018913a 	slli	r12,r12,4
  102f80:	39c003cc 	andi	r7,r7,15
  102f84:	010000c4 	movi	r4,3
  102f88:	1b07883a 	add	r3,r3,r12
  102f8c:	21c00e2e 	bgeu	r4,r7,102fc8 <memset+0x100>
  102f90:	1813883a 	mov	r9,r3
  102f94:	3811883a 	mov	r8,r7
  102f98:	010000c4 	movi	r4,3
  102f9c:	49800015 	stw	r6,0(r9)
  102fa0:	423fff04 	addi	r8,r8,-4
  102fa4:	4a400104 	addi	r9,r9,4
  102fa8:	223ffc36 	bltu	r4,r8,102f9c <_gp+0xffefa7a4>
  102fac:	393fff04 	addi	r4,r7,-4
  102fb0:	2008d0ba 	srli	r4,r4,2
  102fb4:	39c000cc 	andi	r7,r7,3
  102fb8:	21000044 	addi	r4,r4,1
  102fbc:	2109883a 	add	r4,r4,r4
  102fc0:	2109883a 	add	r4,r4,r4
  102fc4:	1907883a 	add	r3,r3,r4
  102fc8:	38000526 	beq	r7,zero,102fe0 <memset+0x118>
  102fcc:	19cf883a 	add	r7,r3,r7
  102fd0:	19400005 	stb	r5,0(r3)
  102fd4:	18c00044 	addi	r3,r3,1
  102fd8:	38fffd1e 	bne	r7,r3,102fd0 <_gp+0xffefa7d8>
  102fdc:	f800283a 	ret
  102fe0:	f800283a 	ret
  102fe4:	2007883a 	mov	r3,r4
  102fe8:	300f883a 	mov	r7,r6
  102fec:	003fc706 	br	102f0c <_gp+0xffefa714>

00102ff0 <alt_load_section>:
  102ff0:	defffc04 	addi	sp,sp,-16
  102ff4:	df000315 	stw	fp,12(sp)
  102ff8:	df000304 	addi	fp,sp,12
  102ffc:	e13ffd15 	stw	r4,-12(fp)
  103000:	e17ffe15 	stw	r5,-8(fp)
  103004:	e1bfff15 	stw	r6,-4(fp)
  103008:	e0fffe17 	ldw	r3,-8(fp)
  10300c:	e0bffd17 	ldw	r2,-12(fp)
  103010:	18800c26 	beq	r3,r2,103044 <alt_load_section+0x54>
  103014:	00000806 	br	103038 <alt_load_section+0x48>
  103018:	e0bffe17 	ldw	r2,-8(fp)
  10301c:	10c00104 	addi	r3,r2,4
  103020:	e0fffe15 	stw	r3,-8(fp)
  103024:	e0fffd17 	ldw	r3,-12(fp)
  103028:	19000104 	addi	r4,r3,4
  10302c:	e13ffd15 	stw	r4,-12(fp)
  103030:	18c00017 	ldw	r3,0(r3)
  103034:	10c00015 	stw	r3,0(r2)
  103038:	e0fffe17 	ldw	r3,-8(fp)
  10303c:	e0bfff17 	ldw	r2,-4(fp)
  103040:	18bff51e 	bne	r3,r2,103018 <_gp+0xffefa820>
  103044:	0001883a 	nop
  103048:	e037883a 	mov	sp,fp
  10304c:	df000017 	ldw	fp,0(sp)
  103050:	dec00104 	addi	sp,sp,4
  103054:	f800283a 	ret

00103058 <alt_load>:
  103058:	defffe04 	addi	sp,sp,-8
  10305c:	dfc00115 	stw	ra,4(sp)
  103060:	df000015 	stw	fp,0(sp)
  103064:	d839883a 	mov	fp,sp
  103068:	01800834 	movhi	r6,32
  10306c:	31821104 	addi	r6,r6,2116
  103070:	01400834 	movhi	r5,32
  103074:	29404b04 	addi	r5,r5,300
  103078:	01000434 	movhi	r4,16
  10307c:	2113c504 	addi	r4,r4,20244
  103080:	0102ff00 	call	102ff0 <alt_load_section>
  103084:	01800434 	movhi	r6,16
  103088:	31800804 	addi	r6,r6,32
  10308c:	01400434 	movhi	r5,16
  103090:	29400804 	addi	r5,r5,32
  103094:	01000434 	movhi	r4,16
  103098:	21000804 	addi	r4,r4,32
  10309c:	0102ff00 	call	102ff0 <alt_load_section>
  1030a0:	01800834 	movhi	r6,32
  1030a4:	31804b04 	addi	r6,r6,300
  1030a8:	01400834 	movhi	r5,32
  1030ac:	29400004 	addi	r5,r5,0
  1030b0:	01000434 	movhi	r4,16
  1030b4:	21137a04 	addi	r4,r4,19944
  1030b8:	0102ff00 	call	102ff0 <alt_load_section>
  1030bc:	01045bc0 	call	1045bc <alt_dcache_flush_all>
  1030c0:	01048640 	call	104864 <alt_icache_flush_all>
  1030c4:	0001883a 	nop
  1030c8:	e037883a 	mov	sp,fp
  1030cc:	dfc00117 	ldw	ra,4(sp)
  1030d0:	df000017 	ldw	fp,0(sp)
  1030d4:	dec00204 	addi	sp,sp,8
  1030d8:	f800283a 	ret

001030dc <alt_main>:
  1030dc:	defffd04 	addi	sp,sp,-12
  1030e0:	dfc00215 	stw	ra,8(sp)
  1030e4:	df000115 	stw	fp,4(sp)
  1030e8:	df000104 	addi	fp,sp,4
  1030ec:	0009883a 	mov	r4,zero
  1030f0:	010316c0 	call	10316c <alt_irq_init>
  1030f4:	0001883a 	nop
  1030f8:	01031a40 	call	1031a4 <alt_sys_init>
  1030fc:	01046e80 	call	1046e8 <_do_ctors>
  103100:	01000434 	movhi	r4,16
  103104:	2111d204 	addi	r4,r4,18248
  103108:	01049bc0 	call	1049bc <atexit>
  10310c:	d0a02717 	ldw	r2,-32612(gp)
  103110:	d0e02817 	ldw	r3,-32608(gp)
  103114:	d1202917 	ldw	r4,-32604(gp)
  103118:	200d883a 	mov	r6,r4
  10311c:	180b883a 	mov	r5,r3
  103120:	1009883a 	mov	r4,r2
  103124:	010065c0 	call	10065c <main>
  103128:	e0bfff15 	stw	r2,-4(fp)
  10312c:	01000044 	movi	r4,1
  103130:	01044bc0 	call	1044bc <close>
  103134:	e13fff17 	ldw	r4,-4(fp)
  103138:	01049d00 	call	1049d0 <exit>

0010313c <usleep>:
  10313c:	defffd04 	addi	sp,sp,-12
  103140:	dfc00215 	stw	ra,8(sp)
  103144:	df000115 	stw	fp,4(sp)
  103148:	df000104 	addi	fp,sp,4
  10314c:	e13fff15 	stw	r4,-4(fp)
  103150:	e13fff17 	ldw	r4,-4(fp)
  103154:	01043280 	call	104328 <alt_busy_sleep>
  103158:	e037883a 	mov	sp,fp
  10315c:	dfc00117 	ldw	ra,4(sp)
  103160:	df000017 	ldw	fp,0(sp)
  103164:	dec00204 	addi	sp,sp,8
  103168:	f800283a 	ret

0010316c <alt_irq_init>:
  10316c:	defffd04 	addi	sp,sp,-12
  103170:	dfc00215 	stw	ra,8(sp)
  103174:	df000115 	stw	fp,4(sp)
  103178:	df000104 	addi	fp,sp,4
  10317c:	e13fff15 	stw	r4,-4(fp)
  103180:	01049080 	call	104908 <altera_nios2_gen2_irq_init>
  103184:	00800044 	movi	r2,1
  103188:	1001703a 	wrctl	status,r2
  10318c:	0001883a 	nop
  103190:	e037883a 	mov	sp,fp
  103194:	dfc00117 	ldw	ra,4(sp)
  103198:	df000017 	ldw	fp,0(sp)
  10319c:	dec00204 	addi	sp,sp,8
  1031a0:	f800283a 	ret

001031a4 <alt_sys_init>:
  1031a4:	defffe04 	addi	sp,sp,-8
  1031a8:	dfc00115 	stw	ra,4(sp)
  1031ac:	df000015 	stw	fp,0(sp)
  1031b0:	d839883a 	mov	fp,sp
  1031b4:	0001883a 	nop
  1031b8:	0001883a 	nop
  1031bc:	0001883a 	nop
  1031c0:	0001883a 	nop
  1031c4:	01000834 	movhi	r4,32
  1031c8:	21004b04 	addi	r4,r4,300
  1031cc:	0103c9c0 	call	103c9c <altera_onchip_flash_init>
  1031d0:	0001883a 	nop
  1031d4:	0001883a 	nop
  1031d8:	e037883a 	mov	sp,fp
  1031dc:	dfc00117 	ldw	ra,4(sp)
  1031e0:	df000017 	ldw	fp,0(sp)
  1031e4:	dec00204 	addi	sp,sp,8
  1031e8:	f800283a 	ret

001031ec <alt_avalon_spi_command>:
  1031ec:	defff404 	addi	sp,sp,-48
  1031f0:	df000b15 	stw	fp,44(sp)
  1031f4:	df000b04 	addi	fp,sp,44
  1031f8:	e13ffc15 	stw	r4,-16(fp)
  1031fc:	e17ffd15 	stw	r5,-12(fp)
  103200:	e1bffe15 	stw	r6,-8(fp)
  103204:	e1ffff15 	stw	r7,-4(fp)
  103208:	e0ffff17 	ldw	r3,-4(fp)
  10320c:	e0bffe17 	ldw	r2,-8(fp)
  103210:	1885883a 	add	r2,r3,r2
  103214:	e0bff815 	stw	r2,-32(fp)
  103218:	e0c00217 	ldw	r3,8(fp)
  10321c:	e0800117 	ldw	r2,4(fp)
  103220:	1885883a 	add	r2,r3,r2
  103224:	e0bff915 	stw	r2,-28(fp)
  103228:	e0800117 	ldw	r2,4(fp)
  10322c:	e0bff515 	stw	r2,-44(fp)
  103230:	e0bffe17 	ldw	r2,-8(fp)
  103234:	e0bff615 	stw	r2,-40(fp)
  103238:	00800044 	movi	r2,1
  10323c:	e0bff715 	stw	r2,-36(fp)
  103240:	e0bffc17 	ldw	r2,-16(fp)
  103244:	10800504 	addi	r2,r2,20
  103248:	1009883a 	mov	r4,r2
  10324c:	00c00044 	movi	r3,1
  103250:	e0bffd17 	ldw	r2,-12(fp)
  103254:	1884983a 	sll	r2,r3,r2
  103258:	20800035 	stwio	r2,0(r4)
  10325c:	e0800317 	ldw	r2,12(fp)
  103260:	1080008c 	andi	r2,r2,2
  103264:	1000051e 	bne	r2,zero,10327c <alt_avalon_spi_command+0x90>
  103268:	e0bffc17 	ldw	r2,-16(fp)
  10326c:	10800304 	addi	r2,r2,12
  103270:	1007883a 	mov	r3,r2
  103274:	00810004 	movi	r2,1024
  103278:	18800035 	stwio	r2,0(r3)
  10327c:	e0bffc17 	ldw	r2,-16(fp)
  103280:	10800037 	ldwio	r2,0(r2)
  103284:	e0bffc17 	ldw	r2,-16(fp)
  103288:	10800204 	addi	r2,r2,8
  10328c:	10800037 	ldwio	r2,0(r2)
  103290:	e0bffa15 	stw	r2,-24(fp)
  103294:	e0bffa17 	ldw	r2,-24(fp)
  103298:	1080100c 	andi	r2,r2,64
  10329c:	10000226 	beq	r2,zero,1032a8 <alt_avalon_spi_command+0xbc>
  1032a0:	e0bff717 	ldw	r2,-36(fp)
  1032a4:	1000031e 	bne	r2,zero,1032b4 <alt_avalon_spi_command+0xc8>
  1032a8:	e0bffa17 	ldw	r2,-24(fp)
  1032ac:	1080200c 	andi	r2,r2,128
  1032b0:	103ff426 	beq	r2,zero,103284 <_gp+0xffefaa8c>
  1032b4:	e0bffa17 	ldw	r2,-24(fp)
  1032b8:	1080100c 	andi	r2,r2,64
  1032bc:	10001e26 	beq	r2,zero,103338 <alt_avalon_spi_command+0x14c>
  1032c0:	e0bff717 	ldw	r2,-36(fp)
  1032c4:	00801c0e 	bge	zero,r2,103338 <alt_avalon_spi_command+0x14c>
  1032c8:	e0bff717 	ldw	r2,-36(fp)
  1032cc:	10bfffc4 	addi	r2,r2,-1
  1032d0:	e0bff715 	stw	r2,-36(fp)
  1032d4:	e0ffff17 	ldw	r3,-4(fp)
  1032d8:	e0bff817 	ldw	r2,-32(fp)
  1032dc:	18800a2e 	bgeu	r3,r2,103308 <alt_avalon_spi_command+0x11c>
  1032e0:	e0bffc17 	ldw	r2,-16(fp)
  1032e4:	10800104 	addi	r2,r2,4
  1032e8:	1009883a 	mov	r4,r2
  1032ec:	e0bfff17 	ldw	r2,-4(fp)
  1032f0:	10c00044 	addi	r3,r2,1
  1032f4:	e0ffff15 	stw	r3,-4(fp)
  1032f8:	10800003 	ldbu	r2,0(r2)
  1032fc:	10803fcc 	andi	r2,r2,255
  103300:	20800035 	stwio	r2,0(r4)
  103304:	00000c06 	br	103338 <alt_avalon_spi_command+0x14c>
  103308:	e0bff517 	ldw	r2,-44(fp)
  10330c:	10000826 	beq	r2,zero,103330 <alt_avalon_spi_command+0x144>
  103310:	e0bff517 	ldw	r2,-44(fp)
  103314:	10bfffc4 	addi	r2,r2,-1
  103318:	e0bff515 	stw	r2,-44(fp)
  10331c:	e0bffc17 	ldw	r2,-16(fp)
  103320:	10800104 	addi	r2,r2,4
  103324:	0007883a 	mov	r3,zero
  103328:	10c00035 	stwio	r3,0(r2)
  10332c:	00000206 	br	103338 <alt_avalon_spi_command+0x14c>
  103330:	00bf0004 	movi	r2,-1024
  103334:	e0bff715 	stw	r2,-36(fp)
  103338:	e0bffa17 	ldw	r2,-24(fp)
  10333c:	1080200c 	andi	r2,r2,128
  103340:	103fd026 	beq	r2,zero,103284 <_gp+0xffefaa8c>
  103344:	e0bffc17 	ldw	r2,-16(fp)
  103348:	10800037 	ldwio	r2,0(r2)
  10334c:	e0bffb15 	stw	r2,-20(fp)
  103350:	e0bff617 	ldw	r2,-40(fp)
  103354:	10000426 	beq	r2,zero,103368 <alt_avalon_spi_command+0x17c>
  103358:	e0bff617 	ldw	r2,-40(fp)
  10335c:	10bfffc4 	addi	r2,r2,-1
  103360:	e0bff615 	stw	r2,-40(fp)
  103364:	00000506 	br	10337c <alt_avalon_spi_command+0x190>
  103368:	e0800217 	ldw	r2,8(fp)
  10336c:	10c00044 	addi	r3,r2,1
  103370:	e0c00215 	stw	r3,8(fp)
  103374:	e0fffb17 	ldw	r3,-20(fp)
  103378:	10c00005 	stb	r3,0(r2)
  10337c:	e0bff717 	ldw	r2,-36(fp)
  103380:	10800044 	addi	r2,r2,1
  103384:	e0bff715 	stw	r2,-36(fp)
  103388:	e0bff617 	ldw	r2,-40(fp)
  10338c:	103fbd1e 	bne	r2,zero,103284 <_gp+0xffefaa8c>
  103390:	e0c00217 	ldw	r3,8(fp)
  103394:	e0bff917 	ldw	r2,-28(fp)
  103398:	18bfba1e 	bne	r3,r2,103284 <_gp+0xffefaa8c>
  10339c:	e0bffc17 	ldw	r2,-16(fp)
  1033a0:	10800204 	addi	r2,r2,8
  1033a4:	10800037 	ldwio	r2,0(r2)
  1033a8:	e0bffa15 	stw	r2,-24(fp)
  1033ac:	e0bffa17 	ldw	r2,-24(fp)
  1033b0:	1080080c 	andi	r2,r2,32
  1033b4:	103ff926 	beq	r2,zero,10339c <_gp+0xffefaba4>
  1033b8:	e0800317 	ldw	r2,12(fp)
  1033bc:	1080004c 	andi	r2,r2,1
  1033c0:	1000041e 	bne	r2,zero,1033d4 <alt_avalon_spi_command+0x1e8>
  1033c4:	e0bffc17 	ldw	r2,-16(fp)
  1033c8:	10800304 	addi	r2,r2,12
  1033cc:	0007883a 	mov	r3,zero
  1033d0:	10c00035 	stwio	r3,0(r2)
  1033d4:	e0800117 	ldw	r2,4(fp)
  1033d8:	e037883a 	mov	sp,fp
  1033dc:	df000017 	ldw	fp,0(sp)
  1033e0:	dec00104 	addi	sp,sp,4
  1033e4:	f800283a 	ret

001033e8 <alt_flash_device_register>:
  1033e8:	defffd04 	addi	sp,sp,-12
  1033ec:	dfc00215 	stw	ra,8(sp)
  1033f0:	df000115 	stw	fp,4(sp)
  1033f4:	df000104 	addi	fp,sp,4
  1033f8:	e13fff15 	stw	r4,-4(fp)
  1033fc:	d1600f04 	addi	r5,gp,-32708
  103400:	e13fff17 	ldw	r4,-4(fp)
  103404:	01046440 	call	104644 <alt_dev_llist_insert>
  103408:	e037883a 	mov	sp,fp
  10340c:	dfc00117 	ldw	ra,4(sp)
  103410:	df000017 	ldw	fp,0(sp)
  103414:	dec00204 	addi	sp,sp,8
  103418:	f800283a 	ret

0010341c <alt_onchip_flash_read>:
  10341c:	defff704 	addi	sp,sp,-36
  103420:	dfc00815 	stw	ra,32(sp)
  103424:	df000715 	stw	fp,28(sp)
  103428:	df000704 	addi	fp,sp,28
  10342c:	e13ffc15 	stw	r4,-16(fp)
  103430:	e17ffd15 	stw	r5,-12(fp)
  103434:	e1bffe15 	stw	r6,-8(fp)
  103438:	e1ffff15 	stw	r7,-4(fp)
  10343c:	e03ff915 	stw	zero,-28(fp)
  103440:	e0bffc17 	ldw	r2,-16(fp)
  103444:	e0bffa15 	stw	r2,-24(fp)
  103448:	e0bffa17 	ldw	r2,-24(fp)
  10344c:	10800b17 	ldw	r2,44(r2)
  103450:	e0fffd17 	ldw	r3,-12(fp)
  103454:	1880060e 	bge	r3,r2,103470 <alt_onchip_flash_read+0x54>
  103458:	e0fffd17 	ldw	r3,-12(fp)
  10345c:	e0bfff17 	ldw	r2,-4(fp)
  103460:	1885883a 	add	r2,r3,r2
  103464:	e0fffa17 	ldw	r3,-24(fp)
  103468:	18c00b17 	ldw	r3,44(r3)
  10346c:	1880020e 	bge	r3,r2,103478 <alt_onchip_flash_read+0x5c>
  103470:	00bffc84 	movi	r2,-14
  103474:	00001706 	br	1034d4 <alt_onchip_flash_read+0xb8>
  103478:	e0bffa17 	ldw	r2,-24(fp)
  10347c:	10c00a17 	ldw	r3,40(r2)
  103480:	e0bffd17 	ldw	r2,-12(fp)
  103484:	1885883a 	add	r2,r3,r2
  103488:	e0ffff17 	ldw	r3,-4(fp)
  10348c:	180d883a 	mov	r6,r3
  103490:	100b883a 	mov	r5,r2
  103494:	e13ffe17 	ldw	r4,-8(fp)
  103498:	0102d800 	call	102d80 <memcpy>
  10349c:	e0bffa17 	ldw	r2,-24(fp)
  1034a0:	10802f17 	ldw	r2,188(r2)
  1034a4:	10000a26 	beq	r2,zero,1034d0 <alt_onchip_flash_read+0xb4>
  1034a8:	e0bffa17 	ldw	r2,-24(fp)
  1034ac:	10802f17 	ldw	r2,188(r2)
  1034b0:	10800037 	ldwio	r2,0(r2)
  1034b4:	1080010c 	andi	r2,r2,4
  1034b8:	e0bffb15 	stw	r2,-20(fp)
  1034bc:	e0bffb17 	ldw	r2,-20(fp)
  1034c0:	10800120 	cmpeqi	r2,r2,4
  1034c4:	1000021e 	bne	r2,zero,1034d0 <alt_onchip_flash_read+0xb4>
  1034c8:	00bffec4 	movi	r2,-5
  1034cc:	e0bff915 	stw	r2,-28(fp)
  1034d0:	e0bff917 	ldw	r2,-28(fp)
  1034d4:	e037883a 	mov	sp,fp
  1034d8:	dfc00117 	ldw	ra,4(sp)
  1034dc:	df000017 	ldw	fp,0(sp)
  1034e0:	dec00204 	addi	sp,sp,8
  1034e4:	f800283a 	ret

001034e8 <alt_onchip_flash_get_info>:
  1034e8:	defffa04 	addi	sp,sp,-24
  1034ec:	df000515 	stw	fp,20(sp)
  1034f0:	df000504 	addi	fp,sp,20
  1034f4:	e13ffd15 	stw	r4,-12(fp)
  1034f8:	e17ffe15 	stw	r5,-8(fp)
  1034fc:	e1bfff15 	stw	r6,-4(fp)
  103500:	e03ffb15 	stw	zero,-20(fp)
  103504:	e0bffd17 	ldw	r2,-12(fp)
  103508:	e0bffc15 	stw	r2,-16(fp)
  10350c:	e0bfff17 	ldw	r2,-4(fp)
  103510:	10000426 	beq	r2,zero,103524 <alt_onchip_flash_get_info+0x3c>
  103514:	e0bffc17 	ldw	r2,-16(fp)
  103518:	10c00c17 	ldw	r3,48(r2)
  10351c:	e0bfff17 	ldw	r2,-4(fp)
  103520:	10c00015 	stw	r3,0(r2)
  103524:	e0bffc17 	ldw	r2,-16(fp)
  103528:	10800c17 	ldw	r2,48(r2)
  10352c:	1000031e 	bne	r2,zero,10353c <alt_onchip_flash_get_info+0x54>
  103530:	00bffd04 	movi	r2,-12
  103534:	e0bffb15 	stw	r2,-20(fp)
  103538:	00000d06 	br	103570 <alt_onchip_flash_get_info+0x88>
  10353c:	e0bffc17 	ldw	r2,-16(fp)
  103540:	10800c17 	ldw	r2,48(r2)
  103544:	10800250 	cmplti	r2,r2,9
  103548:	1000031e 	bne	r2,zero,103558 <alt_onchip_flash_get_info+0x70>
  10354c:	00bffc84 	movi	r2,-14
  103550:	e0bffb15 	stw	r2,-20(fp)
  103554:	00000606 	br	103570 <alt_onchip_flash_get_info+0x88>
  103558:	e0bffe17 	ldw	r2,-8(fp)
  10355c:	10000426 	beq	r2,zero,103570 <alt_onchip_flash_get_info+0x88>
  103560:	e0bffc17 	ldw	r2,-16(fp)
  103564:	10c00d04 	addi	r3,r2,52
  103568:	e0bffe17 	ldw	r2,-8(fp)
  10356c:	10c00015 	stw	r3,0(r2)
  103570:	e0bffb17 	ldw	r2,-20(fp)
  103574:	e037883a 	mov	sp,fp
  103578:	df000017 	ldw	fp,0(sp)
  10357c:	dec00104 	addi	sp,sp,4
  103580:	f800283a 	ret

00103584 <alt_onchip_flash_erase_block>:
  103584:	defff904 	addi	sp,sp,-28
  103588:	dfc00615 	stw	ra,24(sp)
  10358c:	df000515 	stw	fp,20(sp)
  103590:	df000504 	addi	fp,sp,20
  103594:	e13ffe15 	stw	r4,-8(fp)
  103598:	e17fff15 	stw	r5,-4(fp)
  10359c:	e03ffb15 	stw	zero,-20(fp)
  1035a0:	e0bffe17 	ldw	r2,-8(fp)
  1035a4:	e0bffc15 	stw	r2,-16(fp)
  1035a8:	e0bffc17 	ldw	r2,-16(fp)
  1035ac:	10800b17 	ldw	r2,44(r2)
  1035b0:	e0ffff17 	ldw	r3,-4(fp)
  1035b4:	18800216 	blt	r3,r2,1035c0 <alt_onchip_flash_erase_block+0x3c>
  1035b8:	00bffc84 	movi	r2,-14
  1035bc:	00004606 	br	1036d8 <alt_onchip_flash_erase_block+0x154>
  1035c0:	e0bffc17 	ldw	r2,-16(fp)
  1035c4:	10802f17 	ldw	r2,188(r2)
  1035c8:	10000326 	beq	r2,zero,1035d8 <alt_onchip_flash_erase_block+0x54>
  1035cc:	e0bffc17 	ldw	r2,-16(fp)
  1035d0:	10802e17 	ldw	r2,184(r2)
  1035d4:	10000226 	beq	r2,zero,1035e0 <alt_onchip_flash_erase_block+0x5c>
  1035d8:	00bffb44 	movi	r2,-19
  1035dc:	00003e06 	br	1036d8 <alt_onchip_flash_erase_block+0x154>
  1035e0:	e0bffc17 	ldw	r2,-16(fp)
  1035e4:	10803f17 	ldw	r2,252(r2)
  1035e8:	10ffffc4 	addi	r3,r2,-1
  1035ec:	e0bfff17 	ldw	r2,-4(fp)
  1035f0:	1884703a 	and	r2,r3,r2
  1035f4:	10000226 	beq	r2,zero,103600 <alt_onchip_flash_erase_block+0x7c>
  1035f8:	00bffa84 	movi	r2,-22
  1035fc:	00003606 	br	1036d8 <alt_onchip_flash_erase_block+0x154>
  103600:	e13ffc17 	ldw	r4,-16(fp)
  103604:	01041780 	call	104178 <alt_onchip_flash_poll_for_status_to_go_idle>
  103608:	e0bffb15 	stw	r2,-20(fp)
  10360c:	e0bffb17 	ldw	r2,-20(fp)
  103610:	10000226 	beq	r2,zero,10361c <alt_onchip_flash_erase_block+0x98>
  103614:	e0bffb17 	ldw	r2,-20(fp)
  103618:	00002f06 	br	1036d8 <alt_onchip_flash_erase_block+0x154>
  10361c:	e0bffc17 	ldw	r2,-16(fp)
  103620:	10802f17 	ldw	r2,188(r2)
  103624:	10c00104 	addi	r3,r2,4
  103628:	e0bffc17 	ldw	r2,-16(fp)
  10362c:	10802f17 	ldw	r2,188(r2)
  103630:	10800104 	addi	r2,r2,4
  103634:	10800037 	ldwio	r2,0(r2)
  103638:	113c002c 	andhi	r4,r2,61440
  10363c:	00802034 	movhi	r2,128
  103640:	10bfffc4 	addi	r2,r2,-1
  103644:	2084b03a 	or	r2,r4,r2
  103648:	18800035 	stwio	r2,0(r3)
  10364c:	e0bfff17 	ldw	r2,-4(fp)
  103650:	1000010e 	bge	r2,zero,103658 <alt_onchip_flash_erase_block+0xd4>
  103654:	108000c4 	addi	r2,r2,3
  103658:	1005d0ba 	srai	r2,r2,2
  10365c:	e0bffd15 	stw	r2,-12(fp)
  103660:	e0bffc17 	ldw	r2,-16(fp)
  103664:	10802f17 	ldw	r2,188(r2)
  103668:	10800104 	addi	r2,r2,4
  10366c:	e0fffc17 	ldw	r3,-16(fp)
  103670:	18c02f17 	ldw	r3,188(r3)
  103674:	18c00104 	addi	r3,r3,4
  103678:	18c00037 	ldwio	r3,0(r3)
  10367c:	193c002c 	andhi	r4,r3,61440
  103680:	e0fffd17 	ldw	r3,-12(fp)
  103684:	18c01c34 	orhi	r3,r3,112
  103688:	20c6b03a 	or	r3,r4,r3
  10368c:	10c00035 	stwio	r3,0(r2)
  103690:	e13ffc17 	ldw	r4,-16(fp)
  103694:	01041780 	call	104178 <alt_onchip_flash_poll_for_status_to_go_idle>
  103698:	e0bffb15 	stw	r2,-20(fp)
  10369c:	e13ffc17 	ldw	r4,-16(fp)
  1036a0:	01042080 	call	104208 <alt_onchip_flash_poll_for_status_erase_passed>
  1036a4:	e0bffb15 	stw	r2,-20(fp)
  1036a8:	e0bffc17 	ldw	r2,-16(fp)
  1036ac:	10802f17 	ldw	r2,188(r2)
  1036b0:	10c00104 	addi	r3,r2,4
  1036b4:	e0bffc17 	ldw	r2,-16(fp)
  1036b8:	10802f17 	ldw	r2,188(r2)
  1036bc:	10800104 	addi	r2,r2,4
  1036c0:	11000037 	ldwio	r4,0(r2)
  1036c4:	00840034 	movhi	r2,4096
  1036c8:	10bfffc4 	addi	r2,r2,-1
  1036cc:	2084b03a 	or	r2,r4,r2
  1036d0:	18800035 	stwio	r2,0(r3)
  1036d4:	e0bffb17 	ldw	r2,-20(fp)
  1036d8:	e037883a 	mov	sp,fp
  1036dc:	dfc00117 	ldw	ra,4(sp)
  1036e0:	df000017 	ldw	fp,0(sp)
  1036e4:	dec00204 	addi	sp,sp,8
  1036e8:	f800283a 	ret

001036ec <alt_onchip_flash_write_block>:
  1036ec:	defff204 	addi	sp,sp,-56
  1036f0:	dfc00d15 	stw	ra,52(sp)
  1036f4:	df000c15 	stw	fp,48(sp)
  1036f8:	df000c04 	addi	fp,sp,48
  1036fc:	e13ffc15 	stw	r4,-16(fp)
  103700:	e17ffd15 	stw	r5,-12(fp)
  103704:	e1bffe15 	stw	r6,-8(fp)
  103708:	e1ffff15 	stw	r7,-4(fp)
  10370c:	e03ff415 	stw	zero,-48(fp)
  103710:	e0bffc17 	ldw	r2,-16(fp)
  103714:	e0bff815 	stw	r2,-32(fp)
  103718:	e03ff515 	stw	zero,-44(fp)
  10371c:	e0bffe17 	ldw	r2,-8(fp)
  103720:	e0bff615 	stw	r2,-40(fp)
  103724:	e0bff817 	ldw	r2,-32(fp)
  103728:	10800b17 	ldw	r2,44(r2)
  10372c:	e0fffd17 	ldw	r3,-12(fp)
  103730:	18800a0e 	bge	r3,r2,10375c <alt_onchip_flash_write_block+0x70>
  103734:	e0bff817 	ldw	r2,-32(fp)
  103738:	10800b17 	ldw	r2,44(r2)
  10373c:	e0fffe17 	ldw	r3,-8(fp)
  103740:	1880060e 	bge	r3,r2,10375c <alt_onchip_flash_write_block+0x70>
  103744:	e0bff817 	ldw	r2,-32(fp)
  103748:	10c00b17 	ldw	r3,44(r2)
  10374c:	e0bffe17 	ldw	r2,-8(fp)
  103750:	1887c83a 	sub	r3,r3,r2
  103754:	e0800217 	ldw	r2,8(fp)
  103758:	1880020e 	bge	r3,r2,103764 <alt_onchip_flash_write_block+0x78>
  10375c:	00bffc84 	movi	r2,-14
  103760:	00009306 	br	1039b0 <alt_onchip_flash_write_block+0x2c4>
  103764:	e0bff817 	ldw	r2,-32(fp)
  103768:	10802f17 	ldw	r2,188(r2)
  10376c:	10000326 	beq	r2,zero,10377c <alt_onchip_flash_write_block+0x90>
  103770:	e0bff817 	ldw	r2,-32(fp)
  103774:	10802e17 	ldw	r2,184(r2)
  103778:	10000226 	beq	r2,zero,103784 <alt_onchip_flash_write_block+0x98>
  10377c:	00bffb44 	movi	r2,-19
  103780:	00008b06 	br	1039b0 <alt_onchip_flash_write_block+0x2c4>
  103784:	e13ff817 	ldw	r4,-32(fp)
  103788:	01041780 	call	104178 <alt_onchip_flash_poll_for_status_to_go_idle>
  10378c:	e0bff415 	stw	r2,-48(fp)
  103790:	e0bff417 	ldw	r2,-48(fp)
  103794:	10000226 	beq	r2,zero,1037a0 <alt_onchip_flash_write_block+0xb4>
  103798:	e0bff417 	ldw	r2,-48(fp)
  10379c:	00008406 	br	1039b0 <alt_onchip_flash_write_block+0x2c4>
  1037a0:	e0bff817 	ldw	r2,-32(fp)
  1037a4:	10802f17 	ldw	r2,188(r2)
  1037a8:	10c00104 	addi	r3,r2,4
  1037ac:	e0bff817 	ldw	r2,-32(fp)
  1037b0:	10802f17 	ldw	r2,188(r2)
  1037b4:	10800104 	addi	r2,r2,4
  1037b8:	10800037 	ldwio	r2,0(r2)
  1037bc:	113c002c 	andhi	r4,r2,61440
  1037c0:	00802034 	movhi	r2,128
  1037c4:	10bfffc4 	addi	r2,r2,-1
  1037c8:	2084b03a 	or	r2,r4,r2
  1037cc:	18800035 	stwio	r2,0(r3)
  1037d0:	00006506 	br	103968 <alt_onchip_flash_write_block+0x27c>
  1037d4:	00bfffc4 	movi	r2,-1
  1037d8:	e0bffb15 	stw	r2,-20(fp)
  1037dc:	e0bff617 	ldw	r2,-40(fp)
  1037e0:	108000cc 	andi	r2,r2,3
  1037e4:	10001e1e 	bne	r2,zero,103860 <alt_onchip_flash_write_block+0x174>
  1037e8:	e0bff617 	ldw	r2,-40(fp)
  1037ec:	10c00104 	addi	r3,r2,4
  1037f0:	00bfff04 	movi	r2,-4
  1037f4:	1884703a 	and	r2,r3,r2
  1037f8:	e0bff715 	stw	r2,-36(fp)
  1037fc:	e0fff717 	ldw	r3,-36(fp)
  103800:	e0bff617 	ldw	r2,-40(fp)
  103804:	1885c83a 	sub	r2,r3,r2
  103808:	e0c00217 	ldw	r3,8(fp)
  10380c:	1880010e 	bge	r3,r2,103814 <alt_onchip_flash_write_block+0x128>
  103810:	1805883a 	mov	r2,r3
  103814:	e0bff915 	stw	r2,-28(fp)
  103818:	e0bff517 	ldw	r2,-44(fp)
  10381c:	e0ffff17 	ldw	r3,-4(fp)
  103820:	1887883a 	add	r3,r3,r2
  103824:	e13ff917 	ldw	r4,-28(fp)
  103828:	e0bffb04 	addi	r2,fp,-20
  10382c:	200d883a 	mov	r6,r4
  103830:	180b883a 	mov	r5,r3
  103834:	1009883a 	mov	r4,r2
  103838:	0102d800 	call	102d80 <memcpy>
  10383c:	e0fff517 	ldw	r3,-44(fp)
  103840:	e0bff917 	ldw	r2,-28(fp)
  103844:	1885883a 	add	r2,r3,r2
  103848:	e0bff515 	stw	r2,-44(fp)
  10384c:	e0c00217 	ldw	r3,8(fp)
  103850:	e0bff917 	ldw	r2,-28(fp)
  103854:	1885c83a 	sub	r2,r3,r2
  103858:	e0800215 	stw	r2,8(fp)
  10385c:	00003006 	br	103920 <alt_onchip_flash_write_block+0x234>
  103860:	e0bff617 	ldw	r2,-40(fp)
  103864:	108000cc 	andi	r2,r2,3
  103868:	e0bffa15 	stw	r2,-24(fp)
  10386c:	e0fff617 	ldw	r3,-40(fp)
  103870:	e0bffa17 	ldw	r2,-24(fp)
  103874:	1885c83a 	sub	r2,r3,r2
  103878:	e0bff615 	stw	r2,-40(fp)
  10387c:	e0bff617 	ldw	r2,-40(fp)
  103880:	10c00104 	addi	r3,r2,4
  103884:	00bfff04 	movi	r2,-4
  103888:	1884703a 	and	r2,r3,r2
  10388c:	e0bff715 	stw	r2,-36(fp)
  103890:	e0fff717 	ldw	r3,-36(fp)
  103894:	e0bff617 	ldw	r2,-40(fp)
  103898:	1889c83a 	sub	r4,r3,r2
  10389c:	e0c00217 	ldw	r3,8(fp)
  1038a0:	e0bffa17 	ldw	r2,-24(fp)
  1038a4:	1887883a 	add	r3,r3,r2
  1038a8:	2005883a 	mov	r2,r4
  1038ac:	1880010e 	bge	r3,r2,1038b4 <alt_onchip_flash_write_block+0x1c8>
  1038b0:	1805883a 	mov	r2,r3
  1038b4:	e0bff915 	stw	r2,-28(fp)
  1038b8:	e0fffb04 	addi	r3,fp,-20
  1038bc:	e0bffa17 	ldw	r2,-24(fp)
  1038c0:	1885883a 	add	r2,r3,r2
  1038c4:	100f883a 	mov	r7,r2
  1038c8:	e0bff517 	ldw	r2,-44(fp)
  1038cc:	e0ffff17 	ldw	r3,-4(fp)
  1038d0:	1889883a 	add	r4,r3,r2
  1038d4:	e0fff917 	ldw	r3,-28(fp)
  1038d8:	e0bffa17 	ldw	r2,-24(fp)
  1038dc:	1885c83a 	sub	r2,r3,r2
  1038e0:	100d883a 	mov	r6,r2
  1038e4:	200b883a 	mov	r5,r4
  1038e8:	3809883a 	mov	r4,r7
  1038ec:	0102d800 	call	102d80 <memcpy>
  1038f0:	e0fff917 	ldw	r3,-28(fp)
  1038f4:	e0bffa17 	ldw	r2,-24(fp)
  1038f8:	1885c83a 	sub	r2,r3,r2
  1038fc:	e0fff517 	ldw	r3,-44(fp)
  103900:	1885883a 	add	r2,r3,r2
  103904:	e0bff515 	stw	r2,-44(fp)
  103908:	e0fff917 	ldw	r3,-28(fp)
  10390c:	e0bffa17 	ldw	r2,-24(fp)
  103910:	1885c83a 	sub	r2,r3,r2
  103914:	e0c00217 	ldw	r3,8(fp)
  103918:	1885c83a 	sub	r2,r3,r2
  10391c:	e0800215 	stw	r2,8(fp)
  103920:	e0bff817 	ldw	r2,-32(fp)
  103924:	10c00a17 	ldw	r3,40(r2)
  103928:	e0bff617 	ldw	r2,-40(fp)
  10392c:	1885883a 	add	r2,r3,r2
  103930:	e0fffb17 	ldw	r3,-20(fp)
  103934:	10c00035 	stwio	r3,0(r2)
  103938:	e13ff817 	ldw	r4,-32(fp)
  10393c:	01041780 	call	104178 <alt_onchip_flash_poll_for_status_to_go_idle>
  103940:	e0bff415 	stw	r2,-48(fp)
  103944:	e0bff417 	ldw	r2,-48(fp)
  103948:	10000a1e 	bne	r2,zero,103974 <alt_onchip_flash_write_block+0x288>
  10394c:	e13ff817 	ldw	r4,-32(fp)
  103950:	01042980 	call	104298 <alt_onchip_flash_poll_for_status_write_passed>
  103954:	e0bff415 	stw	r2,-48(fp)
  103958:	e0bff417 	ldw	r2,-48(fp)
  10395c:	1000071e 	bne	r2,zero,10397c <alt_onchip_flash_write_block+0x290>
  103960:	e0bff717 	ldw	r2,-36(fp)
  103964:	e0bff615 	stw	r2,-40(fp)
  103968:	e0800217 	ldw	r2,8(fp)
  10396c:	103f991e 	bne	r2,zero,1037d4 <_gp+0xffefafdc>
  103970:	00000306 	br	103980 <alt_onchip_flash_write_block+0x294>
  103974:	0001883a 	nop
  103978:	00000106 	br	103980 <alt_onchip_flash_write_block+0x294>
  10397c:	0001883a 	nop
  103980:	e0bff817 	ldw	r2,-32(fp)
  103984:	10802f17 	ldw	r2,188(r2)
  103988:	10c00104 	addi	r3,r2,4
  10398c:	e0bff817 	ldw	r2,-32(fp)
  103990:	10802f17 	ldw	r2,188(r2)
  103994:	10800104 	addi	r2,r2,4
  103998:	11000037 	ldwio	r4,0(r2)
  10399c:	00840034 	movhi	r2,4096
  1039a0:	10bfffc4 	addi	r2,r2,-1
  1039a4:	2084b03a 	or	r2,r4,r2
  1039a8:	18800035 	stwio	r2,0(r3)
  1039ac:	e0bff417 	ldw	r2,-48(fp)
  1039b0:	e037883a 	mov	sp,fp
  1039b4:	dfc00117 	ldw	ra,4(sp)
  1039b8:	df000017 	ldw	fp,0(sp)
  1039bc:	dec00204 	addi	sp,sp,8
  1039c0:	f800283a 	ret

001039c4 <alt_onchip_flash_write>:
  1039c4:	defff104 	addi	sp,sp,-60
  1039c8:	dfc00e15 	stw	ra,56(sp)
  1039cc:	df000d15 	stw	fp,52(sp)
  1039d0:	df000d04 	addi	fp,sp,52
  1039d4:	e13ffc15 	stw	r4,-16(fp)
  1039d8:	e17ffd15 	stw	r5,-12(fp)
  1039dc:	e1bffe15 	stw	r6,-8(fp)
  1039e0:	e1ffff15 	stw	r7,-4(fp)
  1039e4:	e03ff415 	stw	zero,-48(fp)
  1039e8:	e0bfff17 	ldw	r2,-4(fp)
  1039ec:	e0bff815 	stw	r2,-32(fp)
  1039f0:	e0bffd17 	ldw	r2,-12(fp)
  1039f4:	e0bff915 	stw	r2,-28(fp)
  1039f8:	e0bffc17 	ldw	r2,-16(fp)
  1039fc:	e0bffa15 	stw	r2,-24(fp)
  103a00:	e0bffa17 	ldw	r2,-24(fp)
  103a04:	10800b17 	ldw	r2,44(r2)
  103a08:	e0fffd17 	ldw	r3,-12(fp)
  103a0c:	1880060e 	bge	r3,r2,103a28 <alt_onchip_flash_write+0x64>
  103a10:	e0bffa17 	ldw	r2,-24(fp)
  103a14:	10c00b17 	ldw	r3,44(r2)
  103a18:	e0bffd17 	ldw	r2,-12(fp)
  103a1c:	1887c83a 	sub	r3,r3,r2
  103a20:	e0bfff17 	ldw	r2,-4(fp)
  103a24:	1880020e 	bge	r3,r2,103a30 <alt_onchip_flash_write+0x6c>
  103a28:	00bffc84 	movi	r2,-14
  103a2c:	00009606 	br	103c88 <alt_onchip_flash_write+0x2c4>
  103a30:	e03ff515 	stw	zero,-44(fp)
  103a34:	00008706 	br	103c54 <alt_onchip_flash_write+0x290>
  103a38:	e0fffa17 	ldw	r3,-24(fp)
  103a3c:	e0bff517 	ldw	r2,-44(fp)
  103a40:	1004913a 	slli	r2,r2,4
  103a44:	1885883a 	add	r2,r3,r2
  103a48:	10800d04 	addi	r2,r2,52
  103a4c:	10800017 	ldw	r2,0(r2)
  103a50:	e0fffd17 	ldw	r3,-12(fp)
  103a54:	18807c16 	blt	r3,r2,103c48 <alt_onchip_flash_write+0x284>
  103a58:	e0fffa17 	ldw	r3,-24(fp)
  103a5c:	e0bff517 	ldw	r2,-44(fp)
  103a60:	1004913a 	slli	r2,r2,4
  103a64:	1885883a 	add	r2,r3,r2
  103a68:	10800d04 	addi	r2,r2,52
  103a6c:	10c00017 	ldw	r3,0(r2)
  103a70:	e13ffa17 	ldw	r4,-24(fp)
  103a74:	e0bff517 	ldw	r2,-44(fp)
  103a78:	1004913a 	slli	r2,r2,4
  103a7c:	2085883a 	add	r2,r4,r2
  103a80:	10800e04 	addi	r2,r2,56
  103a84:	10800017 	ldw	r2,0(r2)
  103a88:	1885883a 	add	r2,r3,r2
  103a8c:	e0fffd17 	ldw	r3,-12(fp)
  103a90:	18806d0e 	bge	r3,r2,103c48 <alt_onchip_flash_write+0x284>
  103a94:	e0fffa17 	ldw	r3,-24(fp)
  103a98:	e0bff517 	ldw	r2,-44(fp)
  103a9c:	1004913a 	slli	r2,r2,4
  103aa0:	1885883a 	add	r2,r3,r2
  103aa4:	10800d04 	addi	r2,r2,52
  103aa8:	10800017 	ldw	r2,0(r2)
  103aac:	e0bff715 	stw	r2,-36(fp)
  103ab0:	e03ff615 	stw	zero,-40(fp)
  103ab4:	00005c06 	br	103c28 <alt_onchip_flash_write+0x264>
  103ab8:	e0fffd17 	ldw	r3,-12(fp)
  103abc:	e0bff717 	ldw	r2,-36(fp)
  103ac0:	18804d16 	blt	r3,r2,103bf8 <alt_onchip_flash_write+0x234>
  103ac4:	e0fffa17 	ldw	r3,-24(fp)
  103ac8:	e0bff517 	ldw	r2,-44(fp)
  103acc:	10800104 	addi	r2,r2,4
  103ad0:	1004913a 	slli	r2,r2,4
  103ad4:	1885883a 	add	r2,r3,r2
  103ad8:	10c00017 	ldw	r3,0(r2)
  103adc:	e0bff717 	ldw	r2,-36(fp)
  103ae0:	1885883a 	add	r2,r3,r2
  103ae4:	e0fffd17 	ldw	r3,-12(fp)
  103ae8:	1880430e 	bge	r3,r2,103bf8 <alt_onchip_flash_write+0x234>
  103aec:	e0fffa17 	ldw	r3,-24(fp)
  103af0:	e0bff517 	ldw	r2,-44(fp)
  103af4:	10800104 	addi	r2,r2,4
  103af8:	1004913a 	slli	r2,r2,4
  103afc:	1885883a 	add	r2,r3,r2
  103b00:	10c00017 	ldw	r3,0(r2)
  103b04:	e0bff717 	ldw	r2,-36(fp)
  103b08:	1887883a 	add	r3,r3,r2
  103b0c:	e0bffd17 	ldw	r2,-12(fp)
  103b10:	1885c83a 	sub	r2,r3,r2
  103b14:	e0bffb15 	stw	r2,-20(fp)
  103b18:	e0fffb17 	ldw	r3,-20(fp)
  103b1c:	e0bfff17 	ldw	r2,-4(fp)
  103b20:	1880010e 	bge	r3,r2,103b28 <alt_onchip_flash_write+0x164>
  103b24:	1805883a 	mov	r2,r3
  103b28:	e0bffb15 	stw	r2,-20(fp)
  103b2c:	e0bffa17 	ldw	r2,-24(fp)
  103b30:	10c00a17 	ldw	r3,40(r2)
  103b34:	e0bffd17 	ldw	r2,-12(fp)
  103b38:	1885883a 	add	r2,r3,r2
  103b3c:	e0fffb17 	ldw	r3,-20(fp)
  103b40:	180d883a 	mov	r6,r3
  103b44:	100b883a 	mov	r5,r2
  103b48:	e13ffe17 	ldw	r4,-8(fp)
  103b4c:	0104a080 	call	104a08 <memcmp>
  103b50:	10001326 	beq	r2,zero,103ba0 <alt_onchip_flash_write+0x1dc>
  103b54:	e0bffa17 	ldw	r2,-24(fp)
  103b58:	10800817 	ldw	r2,32(r2)
  103b5c:	e0fffa17 	ldw	r3,-24(fp)
  103b60:	e17ff717 	ldw	r5,-36(fp)
  103b64:	1809883a 	mov	r4,r3
  103b68:	103ee83a 	callr	r2
  103b6c:	e0bff415 	stw	r2,-48(fp)
  103b70:	e0bff417 	ldw	r2,-48(fp)
  103b74:	10000a1e 	bne	r2,zero,103ba0 <alt_onchip_flash_write+0x1dc>
  103b78:	e0bffa17 	ldw	r2,-24(fp)
  103b7c:	10800917 	ldw	r2,36(r2)
  103b80:	e13ffa17 	ldw	r4,-24(fp)
  103b84:	e0fffb17 	ldw	r3,-20(fp)
  103b88:	d8c00015 	stw	r3,0(sp)
  103b8c:	e1fffe17 	ldw	r7,-8(fp)
  103b90:	e1bffd17 	ldw	r6,-12(fp)
  103b94:	e17ff717 	ldw	r5,-36(fp)
  103b98:	103ee83a 	callr	r2
  103b9c:	e0bff415 	stw	r2,-48(fp)
  103ba0:	e0ffff17 	ldw	r3,-4(fp)
  103ba4:	e0bffb17 	ldw	r2,-20(fp)
  103ba8:	18802e26 	beq	r3,r2,103c64 <alt_onchip_flash_write+0x2a0>
  103bac:	e0bff417 	ldw	r2,-48(fp)
  103bb0:	10002c1e 	bne	r2,zero,103c64 <alt_onchip_flash_write+0x2a0>
  103bb4:	e0ffff17 	ldw	r3,-4(fp)
  103bb8:	e0bffb17 	ldw	r2,-20(fp)
  103bbc:	1885c83a 	sub	r2,r3,r2
  103bc0:	e0bfff15 	stw	r2,-4(fp)
  103bc4:	e0fffa17 	ldw	r3,-24(fp)
  103bc8:	e0bff517 	ldw	r2,-44(fp)
  103bcc:	10800104 	addi	r2,r2,4
  103bd0:	1004913a 	slli	r2,r2,4
  103bd4:	1885883a 	add	r2,r3,r2
  103bd8:	10c00017 	ldw	r3,0(r2)
  103bdc:	e0bff717 	ldw	r2,-36(fp)
  103be0:	1885883a 	add	r2,r3,r2
  103be4:	e0bffd15 	stw	r2,-12(fp)
  103be8:	e0bffb17 	ldw	r2,-20(fp)
  103bec:	e0fffe17 	ldw	r3,-8(fp)
  103bf0:	1885883a 	add	r2,r3,r2
  103bf4:	e0bffe15 	stw	r2,-8(fp)
  103bf8:	e0fffa17 	ldw	r3,-24(fp)
  103bfc:	e0bff517 	ldw	r2,-44(fp)
  103c00:	10800104 	addi	r2,r2,4
  103c04:	1004913a 	slli	r2,r2,4
  103c08:	1885883a 	add	r2,r3,r2
  103c0c:	10800017 	ldw	r2,0(r2)
  103c10:	e0fff717 	ldw	r3,-36(fp)
  103c14:	1885883a 	add	r2,r3,r2
  103c18:	e0bff715 	stw	r2,-36(fp)
  103c1c:	e0bff617 	ldw	r2,-40(fp)
  103c20:	10800044 	addi	r2,r2,1
  103c24:	e0bff615 	stw	r2,-40(fp)
  103c28:	e0fffa17 	ldw	r3,-24(fp)
  103c2c:	e0bff517 	ldw	r2,-44(fp)
  103c30:	1004913a 	slli	r2,r2,4
  103c34:	1885883a 	add	r2,r3,r2
  103c38:	10800f04 	addi	r2,r2,60
  103c3c:	10800017 	ldw	r2,0(r2)
  103c40:	e0fff617 	ldw	r3,-40(fp)
  103c44:	18bf9c16 	blt	r3,r2,103ab8 <_gp+0xffefb2c0>
  103c48:	e0bff517 	ldw	r2,-44(fp)
  103c4c:	10800044 	addi	r2,r2,1
  103c50:	e0bff515 	stw	r2,-44(fp)
  103c54:	e0bffa17 	ldw	r2,-24(fp)
  103c58:	10800c17 	ldw	r2,48(r2)
  103c5c:	e0fff517 	ldw	r3,-44(fp)
  103c60:	18bf7516 	blt	r3,r2,103a38 <_gp+0xffefb240>
  103c64:	e0bffa17 	ldw	r2,-24(fp)
  103c68:	10c00a17 	ldw	r3,40(r2)
  103c6c:	e0bff917 	ldw	r2,-28(fp)
  103c70:	1885883a 	add	r2,r3,r2
  103c74:	e0fff817 	ldw	r3,-32(fp)
  103c78:	180b883a 	mov	r5,r3
  103c7c:	1009883a 	mov	r4,r2
  103c80:	01045940 	call	104594 <alt_dcache_flush>
  103c84:	e0bff417 	ldw	r2,-48(fp)
  103c88:	e037883a 	mov	sp,fp
  103c8c:	dfc00117 	ldw	ra,4(sp)
  103c90:	df000017 	ldw	fp,0(sp)
  103c94:	dec00204 	addi	sp,sp,8
  103c98:	f800283a 	ret

00103c9c <altera_onchip_flash_init>:
  103c9c:	defff504 	addi	sp,sp,-44
  103ca0:	dfc00a15 	stw	ra,40(sp)
  103ca4:	df000915 	stw	fp,36(sp)
  103ca8:	dc000815 	stw	r16,32(sp)
  103cac:	df000904 	addi	fp,sp,36
  103cb0:	e13ffe15 	stw	r4,-8(fp)
  103cb4:	e03ff815 	stw	zero,-32(fp)
  103cb8:	e03ff915 	stw	zero,-28(fp)
  103cbc:	e03ffa15 	stw	zero,-24(fp)
  103cc0:	e03ffb15 	stw	zero,-20(fp)
  103cc4:	e03ffc15 	stw	zero,-16(fp)
  103cc8:	e03ff715 	stw	zero,-36(fp)
  103ccc:	e0bffe17 	ldw	r2,-8(fp)
  103cd0:	10800d04 	addi	r2,r2,52
  103cd4:	e0bffd15 	stw	r2,-12(fp)
  103cd8:	e0bffe17 	ldw	r2,-8(fp)
  103cdc:	10802f17 	ldw	r2,188(r2)
  103ce0:	10001926 	beq	r2,zero,103d48 <altera_onchip_flash_init+0xac>
  103ce4:	e0bffe17 	ldw	r2,-8(fp)
  103ce8:	10802f17 	ldw	r2,188(r2)
  103cec:	10800037 	ldwio	r2,0(r2)
  103cf0:	1080080c 	andi	r2,r2,32
  103cf4:	e0bff815 	stw	r2,-32(fp)
  103cf8:	e0bffe17 	ldw	r2,-8(fp)
  103cfc:	10802f17 	ldw	r2,188(r2)
  103d00:	10800037 	ldwio	r2,0(r2)
  103d04:	1080100c 	andi	r2,r2,64
  103d08:	e0bff915 	stw	r2,-28(fp)
  103d0c:	e0bffe17 	ldw	r2,-8(fp)
  103d10:	10802f17 	ldw	r2,188(r2)
  103d14:	10800037 	ldwio	r2,0(r2)
  103d18:	1080200c 	andi	r2,r2,128
  103d1c:	e0bffa15 	stw	r2,-24(fp)
  103d20:	e0bffe17 	ldw	r2,-8(fp)
  103d24:	10802f17 	ldw	r2,188(r2)
  103d28:	10800037 	ldwio	r2,0(r2)
  103d2c:	1080400c 	andi	r2,r2,256
  103d30:	e0bffb15 	stw	r2,-20(fp)
  103d34:	e0bffe17 	ldw	r2,-8(fp)
  103d38:	10802f17 	ldw	r2,188(r2)
  103d3c:	10800037 	ldwio	r2,0(r2)
  103d40:	1080800c 	andi	r2,r2,512
  103d44:	e0bffc15 	stw	r2,-16(fp)
  103d48:	e0bffe17 	ldw	r2,-8(fp)
  103d4c:	10803017 	ldw	r2,192(r2)
  103d50:	10800058 	cmpnei	r2,r2,1
  103d54:	10002f1e 	bne	r2,zero,103e14 <altera_onchip_flash_init+0x178>
  103d58:	e0bff817 	ldw	r2,-32(fp)
  103d5c:	10800820 	cmpeqi	r2,r2,32
  103d60:	10002c1e 	bne	r2,zero,103e14 <altera_onchip_flash_init+0x178>
  103d64:	e0bff717 	ldw	r2,-36(fp)
  103d68:	1004913a 	slli	r2,r2,4
  103d6c:	e0fffd17 	ldw	r3,-12(fp)
  103d70:	1885883a 	add	r2,r3,r2
  103d74:	e0fffe17 	ldw	r3,-8(fp)
  103d78:	18c03117 	ldw	r3,196(r3)
  103d7c:	10c00015 	stw	r3,0(r2)
  103d80:	e0bff717 	ldw	r2,-36(fp)
  103d84:	1004913a 	slli	r2,r2,4
  103d88:	e0fffd17 	ldw	r3,-12(fp)
  103d8c:	1885883a 	add	r2,r3,r2
  103d90:	e0fffe17 	ldw	r3,-8(fp)
  103d94:	19003217 	ldw	r4,200(r3)
  103d98:	e0fffe17 	ldw	r3,-8(fp)
  103d9c:	18c03117 	ldw	r3,196(r3)
  103da0:	20c7c83a 	sub	r3,r4,r3
  103da4:	18c00044 	addi	r3,r3,1
  103da8:	10c00115 	stw	r3,4(r2)
  103dac:	e0bff717 	ldw	r2,-36(fp)
  103db0:	1004913a 	slli	r2,r2,4
  103db4:	e0fffd17 	ldw	r3,-12(fp)
  103db8:	18a1883a 	add	r16,r3,r2
  103dbc:	e0fffe17 	ldw	r3,-8(fp)
  103dc0:	e0bff717 	ldw	r2,-36(fp)
  103dc4:	1004913a 	slli	r2,r2,4
  103dc8:	1885883a 	add	r2,r3,r2
  103dcc:	10800e04 	addi	r2,r2,56
  103dd0:	10c00017 	ldw	r3,0(r2)
  103dd4:	e0bffe17 	ldw	r2,-8(fp)
  103dd8:	10803f17 	ldw	r2,252(r2)
  103ddc:	100b883a 	mov	r5,r2
  103de0:	1809883a 	mov	r4,r3
  103de4:	010213c0 	call	10213c <__divsi3>
  103de8:	80800215 	stw	r2,8(r16)
  103dec:	e0bff717 	ldw	r2,-36(fp)
  103df0:	1004913a 	slli	r2,r2,4
  103df4:	e0fffd17 	ldw	r3,-12(fp)
  103df8:	1885883a 	add	r2,r3,r2
  103dfc:	e0fffe17 	ldw	r3,-8(fp)
  103e00:	18c03f17 	ldw	r3,252(r3)
  103e04:	10c00315 	stw	r3,12(r2)
  103e08:	e0bff717 	ldw	r2,-36(fp)
  103e0c:	10800044 	addi	r2,r2,1
  103e10:	e0bff715 	stw	r2,-36(fp)
  103e14:	e0bffe17 	ldw	r2,-8(fp)
  103e18:	10803317 	ldw	r2,204(r2)
  103e1c:	10800058 	cmpnei	r2,r2,1
  103e20:	10002f1e 	bne	r2,zero,103ee0 <altera_onchip_flash_init+0x244>
  103e24:	e0bff917 	ldw	r2,-28(fp)
  103e28:	10801020 	cmpeqi	r2,r2,64
  103e2c:	10002c1e 	bne	r2,zero,103ee0 <altera_onchip_flash_init+0x244>
  103e30:	e0bff717 	ldw	r2,-36(fp)
  103e34:	1004913a 	slli	r2,r2,4
  103e38:	e0fffd17 	ldw	r3,-12(fp)
  103e3c:	1885883a 	add	r2,r3,r2
  103e40:	e0fffe17 	ldw	r3,-8(fp)
  103e44:	18c03417 	ldw	r3,208(r3)
  103e48:	10c00015 	stw	r3,0(r2)
  103e4c:	e0bff717 	ldw	r2,-36(fp)
  103e50:	1004913a 	slli	r2,r2,4
  103e54:	e0fffd17 	ldw	r3,-12(fp)
  103e58:	1885883a 	add	r2,r3,r2
  103e5c:	e0fffe17 	ldw	r3,-8(fp)
  103e60:	19003517 	ldw	r4,212(r3)
  103e64:	e0fffe17 	ldw	r3,-8(fp)
  103e68:	18c03417 	ldw	r3,208(r3)
  103e6c:	20c7c83a 	sub	r3,r4,r3
  103e70:	18c00044 	addi	r3,r3,1
  103e74:	10c00115 	stw	r3,4(r2)
  103e78:	e0bff717 	ldw	r2,-36(fp)
  103e7c:	1004913a 	slli	r2,r2,4
  103e80:	e0fffd17 	ldw	r3,-12(fp)
  103e84:	18a1883a 	add	r16,r3,r2
  103e88:	e0fffe17 	ldw	r3,-8(fp)
  103e8c:	e0bff717 	ldw	r2,-36(fp)
  103e90:	1004913a 	slli	r2,r2,4
  103e94:	1885883a 	add	r2,r3,r2
  103e98:	10800e04 	addi	r2,r2,56
  103e9c:	10c00017 	ldw	r3,0(r2)
  103ea0:	e0bffe17 	ldw	r2,-8(fp)
  103ea4:	10803f17 	ldw	r2,252(r2)
  103ea8:	100b883a 	mov	r5,r2
  103eac:	1809883a 	mov	r4,r3
  103eb0:	010213c0 	call	10213c <__divsi3>
  103eb4:	80800215 	stw	r2,8(r16)
  103eb8:	e0bff717 	ldw	r2,-36(fp)
  103ebc:	1004913a 	slli	r2,r2,4
  103ec0:	e0fffd17 	ldw	r3,-12(fp)
  103ec4:	1885883a 	add	r2,r3,r2
  103ec8:	e0fffe17 	ldw	r3,-8(fp)
  103ecc:	18c03f17 	ldw	r3,252(r3)
  103ed0:	10c00315 	stw	r3,12(r2)
  103ed4:	e0bff717 	ldw	r2,-36(fp)
  103ed8:	10800044 	addi	r2,r2,1
  103edc:	e0bff715 	stw	r2,-36(fp)
  103ee0:	e0bffe17 	ldw	r2,-8(fp)
  103ee4:	10803617 	ldw	r2,216(r2)
  103ee8:	10800058 	cmpnei	r2,r2,1
  103eec:	10002f1e 	bne	r2,zero,103fac <altera_onchip_flash_init+0x310>
  103ef0:	e0bffa17 	ldw	r2,-24(fp)
  103ef4:	10802020 	cmpeqi	r2,r2,128
  103ef8:	10002c1e 	bne	r2,zero,103fac <altera_onchip_flash_init+0x310>
  103efc:	e0bff717 	ldw	r2,-36(fp)
  103f00:	1004913a 	slli	r2,r2,4
  103f04:	e0fffd17 	ldw	r3,-12(fp)
  103f08:	1885883a 	add	r2,r3,r2
  103f0c:	e0fffe17 	ldw	r3,-8(fp)
  103f10:	18c03717 	ldw	r3,220(r3)
  103f14:	10c00015 	stw	r3,0(r2)
  103f18:	e0bff717 	ldw	r2,-36(fp)
  103f1c:	1004913a 	slli	r2,r2,4
  103f20:	e0fffd17 	ldw	r3,-12(fp)
  103f24:	1885883a 	add	r2,r3,r2
  103f28:	e0fffe17 	ldw	r3,-8(fp)
  103f2c:	19003817 	ldw	r4,224(r3)
  103f30:	e0fffe17 	ldw	r3,-8(fp)
  103f34:	18c03717 	ldw	r3,220(r3)
  103f38:	20c7c83a 	sub	r3,r4,r3
  103f3c:	18c00044 	addi	r3,r3,1
  103f40:	10c00115 	stw	r3,4(r2)
  103f44:	e0bff717 	ldw	r2,-36(fp)
  103f48:	1004913a 	slli	r2,r2,4
  103f4c:	e0fffd17 	ldw	r3,-12(fp)
  103f50:	18a1883a 	add	r16,r3,r2
  103f54:	e0fffe17 	ldw	r3,-8(fp)
  103f58:	e0bff717 	ldw	r2,-36(fp)
  103f5c:	1004913a 	slli	r2,r2,4
  103f60:	1885883a 	add	r2,r3,r2
  103f64:	10800e04 	addi	r2,r2,56
  103f68:	10c00017 	ldw	r3,0(r2)
  103f6c:	e0bffe17 	ldw	r2,-8(fp)
  103f70:	10803f17 	ldw	r2,252(r2)
  103f74:	100b883a 	mov	r5,r2
  103f78:	1809883a 	mov	r4,r3
  103f7c:	010213c0 	call	10213c <__divsi3>
  103f80:	80800215 	stw	r2,8(r16)
  103f84:	e0bff717 	ldw	r2,-36(fp)
  103f88:	1004913a 	slli	r2,r2,4
  103f8c:	e0fffd17 	ldw	r3,-12(fp)
  103f90:	1885883a 	add	r2,r3,r2
  103f94:	e0fffe17 	ldw	r3,-8(fp)
  103f98:	18c03f17 	ldw	r3,252(r3)
  103f9c:	10c00315 	stw	r3,12(r2)
  103fa0:	e0bff717 	ldw	r2,-36(fp)
  103fa4:	10800044 	addi	r2,r2,1
  103fa8:	e0bff715 	stw	r2,-36(fp)
  103fac:	e0bffe17 	ldw	r2,-8(fp)
  103fb0:	10803917 	ldw	r2,228(r2)
  103fb4:	10800058 	cmpnei	r2,r2,1
  103fb8:	10002f1e 	bne	r2,zero,104078 <altera_onchip_flash_init+0x3dc>
  103fbc:	e0bffb17 	ldw	r2,-20(fp)
  103fc0:	10804020 	cmpeqi	r2,r2,256
  103fc4:	10002c1e 	bne	r2,zero,104078 <altera_onchip_flash_init+0x3dc>
  103fc8:	e0bff717 	ldw	r2,-36(fp)
  103fcc:	1004913a 	slli	r2,r2,4
  103fd0:	e0fffd17 	ldw	r3,-12(fp)
  103fd4:	1885883a 	add	r2,r3,r2
  103fd8:	e0fffe17 	ldw	r3,-8(fp)
  103fdc:	18c03a17 	ldw	r3,232(r3)
  103fe0:	10c00015 	stw	r3,0(r2)
  103fe4:	e0bff717 	ldw	r2,-36(fp)
  103fe8:	1004913a 	slli	r2,r2,4
  103fec:	e0fffd17 	ldw	r3,-12(fp)
  103ff0:	1885883a 	add	r2,r3,r2
  103ff4:	e0fffe17 	ldw	r3,-8(fp)
  103ff8:	19003b17 	ldw	r4,236(r3)
  103ffc:	e0fffe17 	ldw	r3,-8(fp)
  104000:	18c03a17 	ldw	r3,232(r3)
  104004:	20c7c83a 	sub	r3,r4,r3
  104008:	18c00044 	addi	r3,r3,1
  10400c:	10c00115 	stw	r3,4(r2)
  104010:	e0bff717 	ldw	r2,-36(fp)
  104014:	1004913a 	slli	r2,r2,4
  104018:	e0fffd17 	ldw	r3,-12(fp)
  10401c:	18a1883a 	add	r16,r3,r2
  104020:	e0fffe17 	ldw	r3,-8(fp)
  104024:	e0bff717 	ldw	r2,-36(fp)
  104028:	1004913a 	slli	r2,r2,4
  10402c:	1885883a 	add	r2,r3,r2
  104030:	10800e04 	addi	r2,r2,56
  104034:	10c00017 	ldw	r3,0(r2)
  104038:	e0bffe17 	ldw	r2,-8(fp)
  10403c:	10803f17 	ldw	r2,252(r2)
  104040:	100b883a 	mov	r5,r2
  104044:	1809883a 	mov	r4,r3
  104048:	010213c0 	call	10213c <__divsi3>
  10404c:	80800215 	stw	r2,8(r16)
  104050:	e0bff717 	ldw	r2,-36(fp)
  104054:	1004913a 	slli	r2,r2,4
  104058:	e0fffd17 	ldw	r3,-12(fp)
  10405c:	1885883a 	add	r2,r3,r2
  104060:	e0fffe17 	ldw	r3,-8(fp)
  104064:	18c03f17 	ldw	r3,252(r3)
  104068:	10c00315 	stw	r3,12(r2)
  10406c:	e0bff717 	ldw	r2,-36(fp)
  104070:	10800044 	addi	r2,r2,1
  104074:	e0bff715 	stw	r2,-36(fp)
  104078:	e0bffe17 	ldw	r2,-8(fp)
  10407c:	10803c17 	ldw	r2,240(r2)
  104080:	10800058 	cmpnei	r2,r2,1
  104084:	10002f1e 	bne	r2,zero,104144 <altera_onchip_flash_init+0x4a8>
  104088:	e0bffc17 	ldw	r2,-16(fp)
  10408c:	10808020 	cmpeqi	r2,r2,512
  104090:	10002c1e 	bne	r2,zero,104144 <altera_onchip_flash_init+0x4a8>
  104094:	e0bff717 	ldw	r2,-36(fp)
  104098:	1004913a 	slli	r2,r2,4
  10409c:	e0fffd17 	ldw	r3,-12(fp)
  1040a0:	1885883a 	add	r2,r3,r2
  1040a4:	e0fffe17 	ldw	r3,-8(fp)
  1040a8:	18c03d17 	ldw	r3,244(r3)
  1040ac:	10c00015 	stw	r3,0(r2)
  1040b0:	e0bff717 	ldw	r2,-36(fp)
  1040b4:	1004913a 	slli	r2,r2,4
  1040b8:	e0fffd17 	ldw	r3,-12(fp)
  1040bc:	1885883a 	add	r2,r3,r2
  1040c0:	e0fffe17 	ldw	r3,-8(fp)
  1040c4:	19003e17 	ldw	r4,248(r3)
  1040c8:	e0fffe17 	ldw	r3,-8(fp)
  1040cc:	18c03d17 	ldw	r3,244(r3)
  1040d0:	20c7c83a 	sub	r3,r4,r3
  1040d4:	18c00044 	addi	r3,r3,1
  1040d8:	10c00115 	stw	r3,4(r2)
  1040dc:	e0bff717 	ldw	r2,-36(fp)
  1040e0:	1004913a 	slli	r2,r2,4
  1040e4:	e0fffd17 	ldw	r3,-12(fp)
  1040e8:	18a1883a 	add	r16,r3,r2
  1040ec:	e0fffe17 	ldw	r3,-8(fp)
  1040f0:	e0bff717 	ldw	r2,-36(fp)
  1040f4:	1004913a 	slli	r2,r2,4
  1040f8:	1885883a 	add	r2,r3,r2
  1040fc:	10800e04 	addi	r2,r2,56
  104100:	10c00017 	ldw	r3,0(r2)
  104104:	e0bffe17 	ldw	r2,-8(fp)
  104108:	10803f17 	ldw	r2,252(r2)
  10410c:	100b883a 	mov	r5,r2
  104110:	1809883a 	mov	r4,r3
  104114:	010213c0 	call	10213c <__divsi3>
  104118:	80800215 	stw	r2,8(r16)
  10411c:	e0bff717 	ldw	r2,-36(fp)
  104120:	1004913a 	slli	r2,r2,4
  104124:	e0fffd17 	ldw	r3,-12(fp)
  104128:	1885883a 	add	r2,r3,r2
  10412c:	e0fffe17 	ldw	r3,-8(fp)
  104130:	18c03f17 	ldw	r3,252(r3)
  104134:	10c00315 	stw	r3,12(r2)
  104138:	e0bff717 	ldw	r2,-36(fp)
  10413c:	10800044 	addi	r2,r2,1
  104140:	e0bff715 	stw	r2,-36(fp)
  104144:	e0bffe17 	ldw	r2,-8(fp)
  104148:	e0fff717 	ldw	r3,-36(fp)
  10414c:	10c00c15 	stw	r3,48(r2)
  104150:	e0bffe17 	ldw	r2,-8(fp)
  104154:	1009883a 	mov	r4,r2
  104158:	01033e80 	call	1033e8 <alt_flash_device_register>
  10415c:	0001883a 	nop
  104160:	e6ffff04 	addi	sp,fp,-4
  104164:	dfc00217 	ldw	ra,8(sp)
  104168:	df000117 	ldw	fp,4(sp)
  10416c:	dc000017 	ldw	r16,0(sp)
  104170:	dec00304 	addi	sp,sp,12
  104174:	f800283a 	ret

00104178 <alt_onchip_flash_poll_for_status_to_go_idle>:
  104178:	defffa04 	addi	sp,sp,-24
  10417c:	dfc00515 	stw	ra,20(sp)
  104180:	df000415 	stw	fp,16(sp)
  104184:	df000404 	addi	fp,sp,16
  104188:	e13fff15 	stw	r4,-4(fp)
  10418c:	e03ffc15 	stw	zero,-16(fp)
  104190:	008002f4 	movhi	r2,11
  104194:	10ab9804 	addi	r2,r2,-20896
  104198:	e0bffe15 	stw	r2,-8(fp)
  10419c:	008002f4 	movhi	r2,11
  1041a0:	10ab9804 	addi	r2,r2,-20896
  1041a4:	e0bffd15 	stw	r2,-12(fp)
  1041a8:	00000c06 	br	1041dc <alt_onchip_flash_poll_for_status_to_go_idle+0x64>
  1041ac:	01000044 	movi	r4,1
  1041b0:	01043280 	call	104328 <alt_busy_sleep>
  1041b4:	e0bffe17 	ldw	r2,-8(fp)
  1041b8:	10000826 	beq	r2,zero,1041dc <alt_onchip_flash_poll_for_status_to_go_idle+0x64>
  1041bc:	e0bffd17 	ldw	r2,-12(fp)
  1041c0:	10bfffc4 	addi	r2,r2,-1
  1041c4:	e0bffd15 	stw	r2,-12(fp)
  1041c8:	e0bffd17 	ldw	r2,-12(fp)
  1041cc:	1000031e 	bne	r2,zero,1041dc <alt_onchip_flash_poll_for_status_to_go_idle+0x64>
  1041d0:	00bfe304 	movi	r2,-116
  1041d4:	e0bffc15 	stw	r2,-16(fp)
  1041d8:	00000506 	br	1041f0 <alt_onchip_flash_poll_for_status_to_go_idle+0x78>
  1041dc:	e0bfff17 	ldw	r2,-4(fp)
  1041e0:	10802f17 	ldw	r2,188(r2)
  1041e4:	10800037 	ldwio	r2,0(r2)
  1041e8:	108000cc 	andi	r2,r2,3
  1041ec:	103fef1e 	bne	r2,zero,1041ac <_gp+0xffefb9b4>
  1041f0:	e0bffc17 	ldw	r2,-16(fp)
  1041f4:	e037883a 	mov	sp,fp
  1041f8:	dfc00117 	ldw	ra,4(sp)
  1041fc:	df000017 	ldw	fp,0(sp)
  104200:	dec00204 	addi	sp,sp,8
  104204:	f800283a 	ret

00104208 <alt_onchip_flash_poll_for_status_erase_passed>:
  104208:	defffa04 	addi	sp,sp,-24
  10420c:	dfc00515 	stw	ra,20(sp)
  104210:	df000415 	stw	fp,16(sp)
  104214:	df000404 	addi	fp,sp,16
  104218:	e13fff15 	stw	r4,-4(fp)
  10421c:	e03ffc15 	stw	zero,-16(fp)
  104220:	008002f4 	movhi	r2,11
  104224:	10ab9804 	addi	r2,r2,-20896
  104228:	e0bffe15 	stw	r2,-8(fp)
  10422c:	008002f4 	movhi	r2,11
  104230:	10ab9804 	addi	r2,r2,-20896
  104234:	e0bffd15 	stw	r2,-12(fp)
  104238:	00000c06 	br	10426c <alt_onchip_flash_poll_for_status_erase_passed+0x64>
  10423c:	01000044 	movi	r4,1
  104240:	01043280 	call	104328 <alt_busy_sleep>
  104244:	e0bffe17 	ldw	r2,-8(fp)
  104248:	10000826 	beq	r2,zero,10426c <alt_onchip_flash_poll_for_status_erase_passed+0x64>
  10424c:	e0bffd17 	ldw	r2,-12(fp)
  104250:	10bfffc4 	addi	r2,r2,-1
  104254:	e0bffd15 	stw	r2,-12(fp)
  104258:	e0bffd17 	ldw	r2,-12(fp)
  10425c:	1000031e 	bne	r2,zero,10426c <alt_onchip_flash_poll_for_status_erase_passed+0x64>
  104260:	00bfe304 	movi	r2,-116
  104264:	e0bffc15 	stw	r2,-16(fp)
  104268:	00000506 	br	104280 <alt_onchip_flash_poll_for_status_erase_passed+0x78>
  10426c:	e0bfff17 	ldw	r2,-4(fp)
  104270:	10802f17 	ldw	r2,188(r2)
  104274:	10800037 	ldwio	r2,0(r2)
  104278:	1080040c 	andi	r2,r2,16
  10427c:	103fef26 	beq	r2,zero,10423c <_gp+0xffefba44>
  104280:	e0bffc17 	ldw	r2,-16(fp)
  104284:	e037883a 	mov	sp,fp
  104288:	dfc00117 	ldw	ra,4(sp)
  10428c:	df000017 	ldw	fp,0(sp)
  104290:	dec00204 	addi	sp,sp,8
  104294:	f800283a 	ret

00104298 <alt_onchip_flash_poll_for_status_write_passed>:
  104298:	defffa04 	addi	sp,sp,-24
  10429c:	dfc00515 	stw	ra,20(sp)
  1042a0:	df000415 	stw	fp,16(sp)
  1042a4:	df000404 	addi	fp,sp,16
  1042a8:	e13fff15 	stw	r4,-4(fp)
  1042ac:	e03ffc15 	stw	zero,-16(fp)
  1042b0:	008002f4 	movhi	r2,11
  1042b4:	10ab9804 	addi	r2,r2,-20896
  1042b8:	e0bffe15 	stw	r2,-8(fp)
  1042bc:	008002f4 	movhi	r2,11
  1042c0:	10ab9804 	addi	r2,r2,-20896
  1042c4:	e0bffd15 	stw	r2,-12(fp)
  1042c8:	00000c06 	br	1042fc <alt_onchip_flash_poll_for_status_write_passed+0x64>
  1042cc:	01000044 	movi	r4,1
  1042d0:	01043280 	call	104328 <alt_busy_sleep>
  1042d4:	e0bffe17 	ldw	r2,-8(fp)
  1042d8:	10000826 	beq	r2,zero,1042fc <alt_onchip_flash_poll_for_status_write_passed+0x64>
  1042dc:	e0bffd17 	ldw	r2,-12(fp)
  1042e0:	10bfffc4 	addi	r2,r2,-1
  1042e4:	e0bffd15 	stw	r2,-12(fp)
  1042e8:	e0bffd17 	ldw	r2,-12(fp)
  1042ec:	1000031e 	bne	r2,zero,1042fc <alt_onchip_flash_poll_for_status_write_passed+0x64>
  1042f0:	00bfe304 	movi	r2,-116
  1042f4:	e0bffc15 	stw	r2,-16(fp)
  1042f8:	00000506 	br	104310 <alt_onchip_flash_poll_for_status_write_passed+0x78>
  1042fc:	e0bfff17 	ldw	r2,-4(fp)
  104300:	10802f17 	ldw	r2,188(r2)
  104304:	10800037 	ldwio	r2,0(r2)
  104308:	1080020c 	andi	r2,r2,8
  10430c:	103fef26 	beq	r2,zero,1042cc <_gp+0xffefbad4>
  104310:	e0bffc17 	ldw	r2,-16(fp)
  104314:	e037883a 	mov	sp,fp
  104318:	dfc00117 	ldw	ra,4(sp)
  10431c:	df000017 	ldw	fp,0(sp)
  104320:	dec00204 	addi	sp,sp,8
  104324:	f800283a 	ret

00104328 <alt_busy_sleep>:
  104328:	defffa04 	addi	sp,sp,-24
  10432c:	dfc00515 	stw	ra,20(sp)
  104330:	df000415 	stw	fp,16(sp)
  104334:	df000404 	addi	fp,sp,16
  104338:	e13fff15 	stw	r4,-4(fp)
  10433c:	00800244 	movi	r2,9
  104340:	e0bffd15 	stw	r2,-12(fp)
  104344:	014003f4 	movhi	r5,15
  104348:	29509004 	addi	r5,r5,16960
  10434c:	e13ffd17 	ldw	r4,-12(fp)
  104350:	01022f00 	call	1022f0 <__mulsi3>
  104354:	100b883a 	mov	r5,r2
  104358:	01007574 	movhi	r4,469
  10435c:	21300004 	addi	r4,r4,-16384
  104360:	01022340 	call	102234 <__udivsi3>
  104364:	100b883a 	mov	r5,r2
  104368:	01200034 	movhi	r4,32768
  10436c:	213fffc4 	addi	r4,r4,-1
  104370:	01022340 	call	102234 <__udivsi3>
  104374:	100b883a 	mov	r5,r2
  104378:	e13fff17 	ldw	r4,-4(fp)
  10437c:	01022340 	call	102234 <__udivsi3>
  104380:	e0bffe15 	stw	r2,-8(fp)
  104384:	e0bffe17 	ldw	r2,-8(fp)
  104388:	10002a26 	beq	r2,zero,104434 <alt_busy_sleep+0x10c>
  10438c:	e03ffc15 	stw	zero,-16(fp)
  104390:	00001706 	br	1043f0 <alt_busy_sleep+0xc8>
  104394:	00a00034 	movhi	r2,32768
  104398:	10bfffc4 	addi	r2,r2,-1
  10439c:	10bfffc4 	addi	r2,r2,-1
  1043a0:	103ffe1e 	bne	r2,zero,10439c <_gp+0xffefbba4>
  1043a4:	014003f4 	movhi	r5,15
  1043a8:	29509004 	addi	r5,r5,16960
  1043ac:	e13ffd17 	ldw	r4,-12(fp)
  1043b0:	01022f00 	call	1022f0 <__mulsi3>
  1043b4:	100b883a 	mov	r5,r2
  1043b8:	01007574 	movhi	r4,469
  1043bc:	21300004 	addi	r4,r4,-16384
  1043c0:	01022340 	call	102234 <__udivsi3>
  1043c4:	100b883a 	mov	r5,r2
  1043c8:	01200034 	movhi	r4,32768
  1043cc:	213fffc4 	addi	r4,r4,-1
  1043d0:	01022340 	call	102234 <__udivsi3>
  1043d4:	1007883a 	mov	r3,r2
  1043d8:	e0bfff17 	ldw	r2,-4(fp)
  1043dc:	10c5c83a 	sub	r2,r2,r3
  1043e0:	e0bfff15 	stw	r2,-4(fp)
  1043e4:	e0bffc17 	ldw	r2,-16(fp)
  1043e8:	10800044 	addi	r2,r2,1
  1043ec:	e0bffc15 	stw	r2,-16(fp)
  1043f0:	e0fffc17 	ldw	r3,-16(fp)
  1043f4:	e0bffe17 	ldw	r2,-8(fp)
  1043f8:	18bfe616 	blt	r3,r2,104394 <_gp+0xffefbb9c>
  1043fc:	014003f4 	movhi	r5,15
  104400:	29509004 	addi	r5,r5,16960
  104404:	e13ffd17 	ldw	r4,-12(fp)
  104408:	01022f00 	call	1022f0 <__mulsi3>
  10440c:	100b883a 	mov	r5,r2
  104410:	01007574 	movhi	r4,469
  104414:	21300004 	addi	r4,r4,-16384
  104418:	01022340 	call	102234 <__udivsi3>
  10441c:	e17fff17 	ldw	r5,-4(fp)
  104420:	1009883a 	mov	r4,r2
  104424:	01022f00 	call	1022f0 <__mulsi3>
  104428:	10bfffc4 	addi	r2,r2,-1
  10442c:	103ffe1e 	bne	r2,zero,104428 <_gp+0xffefbc30>
  104430:	00000d06 	br	104468 <alt_busy_sleep+0x140>
  104434:	014003f4 	movhi	r5,15
  104438:	29509004 	addi	r5,r5,16960
  10443c:	e13ffd17 	ldw	r4,-12(fp)
  104440:	01022f00 	call	1022f0 <__mulsi3>
  104444:	100b883a 	mov	r5,r2
  104448:	01007574 	movhi	r4,469
  10444c:	21300004 	addi	r4,r4,-16384
  104450:	01022340 	call	102234 <__udivsi3>
  104454:	e17fff17 	ldw	r5,-4(fp)
  104458:	1009883a 	mov	r4,r2
  10445c:	01022f00 	call	1022f0 <__mulsi3>
  104460:	10bfffc4 	addi	r2,r2,-1
  104464:	00bffe16 	blt	zero,r2,104460 <_gp+0xffefbc68>
  104468:	0005883a 	mov	r2,zero
  10446c:	e037883a 	mov	sp,fp
  104470:	dfc00117 	ldw	ra,4(sp)
  104474:	df000017 	ldw	fp,0(sp)
  104478:	dec00204 	addi	sp,sp,8
  10447c:	f800283a 	ret

00104480 <alt_get_errno>:
  104480:	defffe04 	addi	sp,sp,-8
  104484:	dfc00115 	stw	ra,4(sp)
  104488:	df000015 	stw	fp,0(sp)
  10448c:	d839883a 	mov	fp,sp
  104490:	d0a00e17 	ldw	r2,-32712(gp)
  104494:	10000326 	beq	r2,zero,1044a4 <alt_get_errno+0x24>
  104498:	d0a00e17 	ldw	r2,-32712(gp)
  10449c:	103ee83a 	callr	r2
  1044a0:	00000106 	br	1044a8 <alt_get_errno+0x28>
  1044a4:	d0a02a04 	addi	r2,gp,-32600
  1044a8:	e037883a 	mov	sp,fp
  1044ac:	dfc00117 	ldw	ra,4(sp)
  1044b0:	df000017 	ldw	fp,0(sp)
  1044b4:	dec00204 	addi	sp,sp,8
  1044b8:	f800283a 	ret

001044bc <close>:
  1044bc:	defffb04 	addi	sp,sp,-20
  1044c0:	dfc00415 	stw	ra,16(sp)
  1044c4:	df000315 	stw	fp,12(sp)
  1044c8:	df000304 	addi	fp,sp,12
  1044cc:	e13fff15 	stw	r4,-4(fp)
  1044d0:	e0bfff17 	ldw	r2,-4(fp)
  1044d4:	10000816 	blt	r2,zero,1044f8 <close+0x3c>
  1044d8:	01400304 	movi	r5,12
  1044dc:	e13fff17 	ldw	r4,-4(fp)
  1044e0:	01022f00 	call	1022f0 <__mulsi3>
  1044e4:	1007883a 	mov	r3,r2
  1044e8:	00800834 	movhi	r2,32
  1044ec:	10809504 	addi	r2,r2,596
  1044f0:	1885883a 	add	r2,r3,r2
  1044f4:	00000106 	br	1044fc <close+0x40>
  1044f8:	0005883a 	mov	r2,zero
  1044fc:	e0bffd15 	stw	r2,-12(fp)
  104500:	e0bffd17 	ldw	r2,-12(fp)
  104504:	10001926 	beq	r2,zero,10456c <close+0xb0>
  104508:	e0bffd17 	ldw	r2,-12(fp)
  10450c:	10800017 	ldw	r2,0(r2)
  104510:	10800417 	ldw	r2,16(r2)
  104514:	10000626 	beq	r2,zero,104530 <close+0x74>
  104518:	e0bffd17 	ldw	r2,-12(fp)
  10451c:	10800017 	ldw	r2,0(r2)
  104520:	10800417 	ldw	r2,16(r2)
  104524:	e13ffd17 	ldw	r4,-12(fp)
  104528:	103ee83a 	callr	r2
  10452c:	00000106 	br	104534 <close+0x78>
  104530:	0005883a 	mov	r2,zero
  104534:	e0bffe15 	stw	r2,-8(fp)
  104538:	e13fff17 	ldw	r4,-4(fp)
  10453c:	01048840 	call	104884 <alt_release_fd>
  104540:	e0bffe17 	ldw	r2,-8(fp)
  104544:	1000070e 	bge	r2,zero,104564 <close+0xa8>
  104548:	01044800 	call	104480 <alt_get_errno>
  10454c:	1007883a 	mov	r3,r2
  104550:	e0bffe17 	ldw	r2,-8(fp)
  104554:	0085c83a 	sub	r2,zero,r2
  104558:	18800015 	stw	r2,0(r3)
  10455c:	00bfffc4 	movi	r2,-1
  104560:	00000706 	br	104580 <close+0xc4>
  104564:	0005883a 	mov	r2,zero
  104568:	00000506 	br	104580 <close+0xc4>
  10456c:	01044800 	call	104480 <alt_get_errno>
  104570:	1007883a 	mov	r3,r2
  104574:	00801444 	movi	r2,81
  104578:	18800015 	stw	r2,0(r3)
  10457c:	00bfffc4 	movi	r2,-1
  104580:	e037883a 	mov	sp,fp
  104584:	dfc00117 	ldw	ra,4(sp)
  104588:	df000017 	ldw	fp,0(sp)
  10458c:	dec00204 	addi	sp,sp,8
  104590:	f800283a 	ret

00104594 <alt_dcache_flush>:
  104594:	defffd04 	addi	sp,sp,-12
  104598:	df000215 	stw	fp,8(sp)
  10459c:	df000204 	addi	fp,sp,8
  1045a0:	e13ffe15 	stw	r4,-8(fp)
  1045a4:	e17fff15 	stw	r5,-4(fp)
  1045a8:	0001883a 	nop
  1045ac:	e037883a 	mov	sp,fp
  1045b0:	df000017 	ldw	fp,0(sp)
  1045b4:	dec00104 	addi	sp,sp,4
  1045b8:	f800283a 	ret

001045bc <alt_dcache_flush_all>:
  1045bc:	deffff04 	addi	sp,sp,-4
  1045c0:	df000015 	stw	fp,0(sp)
  1045c4:	d839883a 	mov	fp,sp
  1045c8:	0001883a 	nop
  1045cc:	e037883a 	mov	sp,fp
  1045d0:	df000017 	ldw	fp,0(sp)
  1045d4:	dec00104 	addi	sp,sp,4
  1045d8:	f800283a 	ret

001045dc <alt_dev_null_write>:
  1045dc:	defffc04 	addi	sp,sp,-16
  1045e0:	df000315 	stw	fp,12(sp)
  1045e4:	df000304 	addi	fp,sp,12
  1045e8:	e13ffd15 	stw	r4,-12(fp)
  1045ec:	e17ffe15 	stw	r5,-8(fp)
  1045f0:	e1bfff15 	stw	r6,-4(fp)
  1045f4:	e0bfff17 	ldw	r2,-4(fp)
  1045f8:	e037883a 	mov	sp,fp
  1045fc:	df000017 	ldw	fp,0(sp)
  104600:	dec00104 	addi	sp,sp,4
  104604:	f800283a 	ret

00104608 <alt_get_errno>:
  104608:	defffe04 	addi	sp,sp,-8
  10460c:	dfc00115 	stw	ra,4(sp)
  104610:	df000015 	stw	fp,0(sp)
  104614:	d839883a 	mov	fp,sp
  104618:	d0a00e17 	ldw	r2,-32712(gp)
  10461c:	10000326 	beq	r2,zero,10462c <alt_get_errno+0x24>
  104620:	d0a00e17 	ldw	r2,-32712(gp)
  104624:	103ee83a 	callr	r2
  104628:	00000106 	br	104630 <alt_get_errno+0x28>
  10462c:	d0a02a04 	addi	r2,gp,-32600
  104630:	e037883a 	mov	sp,fp
  104634:	dfc00117 	ldw	ra,4(sp)
  104638:	df000017 	ldw	fp,0(sp)
  10463c:	dec00204 	addi	sp,sp,8
  104640:	f800283a 	ret

00104644 <alt_dev_llist_insert>:
  104644:	defffa04 	addi	sp,sp,-24
  104648:	dfc00515 	stw	ra,20(sp)
  10464c:	df000415 	stw	fp,16(sp)
  104650:	df000404 	addi	fp,sp,16
  104654:	e13ffe15 	stw	r4,-8(fp)
  104658:	e17fff15 	stw	r5,-4(fp)
  10465c:	e0bffe17 	ldw	r2,-8(fp)
  104660:	10000326 	beq	r2,zero,104670 <alt_dev_llist_insert+0x2c>
  104664:	e0bffe17 	ldw	r2,-8(fp)
  104668:	10800217 	ldw	r2,8(r2)
  10466c:	1000061e 	bne	r2,zero,104688 <alt_dev_llist_insert+0x44>
  104670:	01046080 	call	104608 <alt_get_errno>
  104674:	1007883a 	mov	r3,r2
  104678:	00800584 	movi	r2,22
  10467c:	18800015 	stw	r2,0(r3)
  104680:	00bffa84 	movi	r2,-22
  104684:	00001306 	br	1046d4 <alt_dev_llist_insert+0x90>
  104688:	e0bffe17 	ldw	r2,-8(fp)
  10468c:	e0ffff17 	ldw	r3,-4(fp)
  104690:	e0fffc15 	stw	r3,-16(fp)
  104694:	e0bffd15 	stw	r2,-12(fp)
  104698:	e0bffd17 	ldw	r2,-12(fp)
  10469c:	e0fffc17 	ldw	r3,-16(fp)
  1046a0:	10c00115 	stw	r3,4(r2)
  1046a4:	e0bffc17 	ldw	r2,-16(fp)
  1046a8:	10c00017 	ldw	r3,0(r2)
  1046ac:	e0bffd17 	ldw	r2,-12(fp)
  1046b0:	10c00015 	stw	r3,0(r2)
  1046b4:	e0bffc17 	ldw	r2,-16(fp)
  1046b8:	10800017 	ldw	r2,0(r2)
  1046bc:	e0fffd17 	ldw	r3,-12(fp)
  1046c0:	10c00115 	stw	r3,4(r2)
  1046c4:	e0bffc17 	ldw	r2,-16(fp)
  1046c8:	e0fffd17 	ldw	r3,-12(fp)
  1046cc:	10c00015 	stw	r3,0(r2)
  1046d0:	0005883a 	mov	r2,zero
  1046d4:	e037883a 	mov	sp,fp
  1046d8:	dfc00117 	ldw	ra,4(sp)
  1046dc:	df000017 	ldw	fp,0(sp)
  1046e0:	dec00204 	addi	sp,sp,8
  1046e4:	f800283a 	ret

001046e8 <_do_ctors>:
  1046e8:	defffd04 	addi	sp,sp,-12
  1046ec:	dfc00215 	stw	ra,8(sp)
  1046f0:	df000115 	stw	fp,4(sp)
  1046f4:	df000104 	addi	fp,sp,4
  1046f8:	00800434 	movhi	r2,16
  1046fc:	10937904 	addi	r2,r2,19940
  104700:	e0bfff15 	stw	r2,-4(fp)
  104704:	00000606 	br	104720 <_do_ctors+0x38>
  104708:	e0bfff17 	ldw	r2,-4(fp)
  10470c:	10800017 	ldw	r2,0(r2)
  104710:	103ee83a 	callr	r2
  104714:	e0bfff17 	ldw	r2,-4(fp)
  104718:	10bfff04 	addi	r2,r2,-4
  10471c:	e0bfff15 	stw	r2,-4(fp)
  104720:	e0ffff17 	ldw	r3,-4(fp)
  104724:	00800434 	movhi	r2,16
  104728:	10937a04 	addi	r2,r2,19944
  10472c:	18bff62e 	bgeu	r3,r2,104708 <_gp+0xffefbf10>
  104730:	0001883a 	nop
  104734:	e037883a 	mov	sp,fp
  104738:	dfc00117 	ldw	ra,4(sp)
  10473c:	df000017 	ldw	fp,0(sp)
  104740:	dec00204 	addi	sp,sp,8
  104744:	f800283a 	ret

00104748 <_do_dtors>:
  104748:	defffd04 	addi	sp,sp,-12
  10474c:	dfc00215 	stw	ra,8(sp)
  104750:	df000115 	stw	fp,4(sp)
  104754:	df000104 	addi	fp,sp,4
  104758:	00800434 	movhi	r2,16
  10475c:	10937904 	addi	r2,r2,19940
  104760:	e0bfff15 	stw	r2,-4(fp)
  104764:	00000606 	br	104780 <_do_dtors+0x38>
  104768:	e0bfff17 	ldw	r2,-4(fp)
  10476c:	10800017 	ldw	r2,0(r2)
  104770:	103ee83a 	callr	r2
  104774:	e0bfff17 	ldw	r2,-4(fp)
  104778:	10bfff04 	addi	r2,r2,-4
  10477c:	e0bfff15 	stw	r2,-4(fp)
  104780:	e0ffff17 	ldw	r3,-4(fp)
  104784:	00800434 	movhi	r2,16
  104788:	10937a04 	addi	r2,r2,19944
  10478c:	18bff62e 	bgeu	r3,r2,104768 <_gp+0xffefbf70>
  104790:	0001883a 	nop
  104794:	e037883a 	mov	sp,fp
  104798:	dfc00117 	ldw	ra,4(sp)
  10479c:	df000017 	ldw	fp,0(sp)
  1047a0:	dec00204 	addi	sp,sp,8
  1047a4:	f800283a 	ret

001047a8 <alt_flash_open_dev>:
  1047a8:	defffc04 	addi	sp,sp,-16
  1047ac:	dfc00315 	stw	ra,12(sp)
  1047b0:	df000215 	stw	fp,8(sp)
  1047b4:	df000204 	addi	fp,sp,8
  1047b8:	e13fff15 	stw	r4,-4(fp)
  1047bc:	d1600f04 	addi	r5,gp,-32708
  1047c0:	e13fff17 	ldw	r4,-4(fp)
  1047c4:	010492c0 	call	10492c <alt_find_dev>
  1047c8:	e0bffe15 	stw	r2,-8(fp)
  1047cc:	e0bffe17 	ldw	r2,-8(fp)
  1047d0:	10000926 	beq	r2,zero,1047f8 <alt_flash_open_dev+0x50>
  1047d4:	e0bffe17 	ldw	r2,-8(fp)
  1047d8:	10800317 	ldw	r2,12(r2)
  1047dc:	10000626 	beq	r2,zero,1047f8 <alt_flash_open_dev+0x50>
  1047e0:	e0bffe17 	ldw	r2,-8(fp)
  1047e4:	10800317 	ldw	r2,12(r2)
  1047e8:	e17fff17 	ldw	r5,-4(fp)
  1047ec:	e13ffe17 	ldw	r4,-8(fp)
  1047f0:	103ee83a 	callr	r2
  1047f4:	00000106 	br	1047fc <alt_flash_open_dev+0x54>
  1047f8:	e0bffe17 	ldw	r2,-8(fp)
  1047fc:	e037883a 	mov	sp,fp
  104800:	dfc00117 	ldw	ra,4(sp)
  104804:	df000017 	ldw	fp,0(sp)
  104808:	dec00204 	addi	sp,sp,8
  10480c:	f800283a 	ret

00104810 <alt_flash_close_dev>:
  104810:	defffd04 	addi	sp,sp,-12
  104814:	dfc00215 	stw	ra,8(sp)
  104818:	df000115 	stw	fp,4(sp)
  10481c:	df000104 	addi	fp,sp,4
  104820:	e13fff15 	stw	r4,-4(fp)
  104824:	e0bfff17 	ldw	r2,-4(fp)
  104828:	10000826 	beq	r2,zero,10484c <alt_flash_close_dev+0x3c>
  10482c:	e0bfff17 	ldw	r2,-4(fp)
  104830:	10800417 	ldw	r2,16(r2)
  104834:	10000526 	beq	r2,zero,10484c <alt_flash_close_dev+0x3c>
  104838:	e0bfff17 	ldw	r2,-4(fp)
  10483c:	10800417 	ldw	r2,16(r2)
  104840:	e13fff17 	ldw	r4,-4(fp)
  104844:	103ee83a 	callr	r2
  104848:	0001883a 	nop
  10484c:	0001883a 	nop
  104850:	e037883a 	mov	sp,fp
  104854:	dfc00117 	ldw	ra,4(sp)
  104858:	df000017 	ldw	fp,0(sp)
  10485c:	dec00204 	addi	sp,sp,8
  104860:	f800283a 	ret

00104864 <alt_icache_flush_all>:
  104864:	deffff04 	addi	sp,sp,-4
  104868:	df000015 	stw	fp,0(sp)
  10486c:	d839883a 	mov	fp,sp
  104870:	0001883a 	nop
  104874:	e037883a 	mov	sp,fp
  104878:	df000017 	ldw	fp,0(sp)
  10487c:	dec00104 	addi	sp,sp,4
  104880:	f800283a 	ret

00104884 <alt_release_fd>:
  104884:	defffc04 	addi	sp,sp,-16
  104888:	dfc00315 	stw	ra,12(sp)
  10488c:	df000215 	stw	fp,8(sp)
  104890:	dc000115 	stw	r16,4(sp)
  104894:	df000204 	addi	fp,sp,8
  104898:	e13ffe15 	stw	r4,-8(fp)
  10489c:	e0bffe17 	ldw	r2,-8(fp)
  1048a0:	108000d0 	cmplti	r2,r2,3
  1048a4:	1000111e 	bne	r2,zero,1048ec <alt_release_fd+0x68>
  1048a8:	04000834 	movhi	r16,32
  1048ac:	84009504 	addi	r16,r16,596
  1048b0:	e0bffe17 	ldw	r2,-8(fp)
  1048b4:	01400304 	movi	r5,12
  1048b8:	1009883a 	mov	r4,r2
  1048bc:	01022f00 	call	1022f0 <__mulsi3>
  1048c0:	8085883a 	add	r2,r16,r2
  1048c4:	10800204 	addi	r2,r2,8
  1048c8:	10000015 	stw	zero,0(r2)
  1048cc:	04000834 	movhi	r16,32
  1048d0:	84009504 	addi	r16,r16,596
  1048d4:	e0bffe17 	ldw	r2,-8(fp)
  1048d8:	01400304 	movi	r5,12
  1048dc:	1009883a 	mov	r4,r2
  1048e0:	01022f00 	call	1022f0 <__mulsi3>
  1048e4:	8085883a 	add	r2,r16,r2
  1048e8:	10000015 	stw	zero,0(r2)
  1048ec:	0001883a 	nop
  1048f0:	e6ffff04 	addi	sp,fp,-4
  1048f4:	dfc00217 	ldw	ra,8(sp)
  1048f8:	df000117 	ldw	fp,4(sp)
  1048fc:	dc000017 	ldw	r16,0(sp)
  104900:	dec00304 	addi	sp,sp,12
  104904:	f800283a 	ret

00104908 <altera_nios2_gen2_irq_init>:
  104908:	deffff04 	addi	sp,sp,-4
  10490c:	df000015 	stw	fp,0(sp)
  104910:	d839883a 	mov	fp,sp
  104914:	000170fa 	wrctl	ienable,zero
  104918:	0001883a 	nop
  10491c:	e037883a 	mov	sp,fp
  104920:	df000017 	ldw	fp,0(sp)
  104924:	dec00104 	addi	sp,sp,4
  104928:	f800283a 	ret

0010492c <alt_find_dev>:
  10492c:	defffa04 	addi	sp,sp,-24
  104930:	dfc00515 	stw	ra,20(sp)
  104934:	df000415 	stw	fp,16(sp)
  104938:	df000404 	addi	fp,sp,16
  10493c:	e13ffe15 	stw	r4,-8(fp)
  104940:	e17fff15 	stw	r5,-4(fp)
  104944:	e0bfff17 	ldw	r2,-4(fp)
  104948:	10800017 	ldw	r2,0(r2)
  10494c:	e0bffc15 	stw	r2,-16(fp)
  104950:	e13ffe17 	ldw	r4,-8(fp)
  104954:	0104a840 	call	104a84 <strlen>
  104958:	10800044 	addi	r2,r2,1
  10495c:	e0bffd15 	stw	r2,-12(fp)
  104960:	00000d06 	br	104998 <alt_find_dev+0x6c>
  104964:	e0bffc17 	ldw	r2,-16(fp)
  104968:	10800217 	ldw	r2,8(r2)
  10496c:	e0fffd17 	ldw	r3,-12(fp)
  104970:	180d883a 	mov	r6,r3
  104974:	e17ffe17 	ldw	r5,-8(fp)
  104978:	1009883a 	mov	r4,r2
  10497c:	0104a080 	call	104a08 <memcmp>
  104980:	1000021e 	bne	r2,zero,10498c <alt_find_dev+0x60>
  104984:	e0bffc17 	ldw	r2,-16(fp)
  104988:	00000706 	br	1049a8 <alt_find_dev+0x7c>
  10498c:	e0bffc17 	ldw	r2,-16(fp)
  104990:	10800017 	ldw	r2,0(r2)
  104994:	e0bffc15 	stw	r2,-16(fp)
  104998:	e0fffc17 	ldw	r3,-16(fp)
  10499c:	e0bfff17 	ldw	r2,-4(fp)
  1049a0:	18bff01e 	bne	r3,r2,104964 <_gp+0xffefc16c>
  1049a4:	0005883a 	mov	r2,zero
  1049a8:	e037883a 	mov	sp,fp
  1049ac:	dfc00117 	ldw	ra,4(sp)
  1049b0:	df000017 	ldw	fp,0(sp)
  1049b4:	dec00204 	addi	sp,sp,8
  1049b8:	f800283a 	ret

001049bc <atexit>:
  1049bc:	200b883a 	mov	r5,r4
  1049c0:	000f883a 	mov	r7,zero
  1049c4:	000d883a 	mov	r6,zero
  1049c8:	0009883a 	mov	r4,zero
  1049cc:	0104b1c1 	jmpi	104b1c <__register_exitproc>

001049d0 <exit>:
  1049d0:	defffe04 	addi	sp,sp,-8
  1049d4:	000b883a 	mov	r5,zero
  1049d8:	dc000015 	stw	r16,0(sp)
  1049dc:	dfc00115 	stw	ra,4(sp)
  1049e0:	2021883a 	mov	r16,r4
  1049e4:	0104c340 	call	104c34 <__call_exitprocs>
  1049e8:	00800834 	movhi	r2,32
  1049ec:	10820f04 	addi	r2,r2,2108
  1049f0:	11000017 	ldw	r4,0(r2)
  1049f4:	20800f17 	ldw	r2,60(r4)
  1049f8:	10000126 	beq	r2,zero,104a00 <exit+0x30>
  1049fc:	103ee83a 	callr	r2
  104a00:	8009883a 	mov	r4,r16
  104a04:	0104db40 	call	104db4 <_exit>

00104a08 <memcmp>:
  104a08:	01c000c4 	movi	r7,3
  104a0c:	3980192e 	bgeu	r7,r6,104a74 <memcmp+0x6c>
  104a10:	2144b03a 	or	r2,r4,r5
  104a14:	11c4703a 	and	r2,r2,r7
  104a18:	10000f26 	beq	r2,zero,104a58 <memcmp+0x50>
  104a1c:	20800003 	ldbu	r2,0(r4)
  104a20:	28c00003 	ldbu	r3,0(r5)
  104a24:	10c0151e 	bne	r2,r3,104a7c <memcmp+0x74>
  104a28:	31bfff84 	addi	r6,r6,-2
  104a2c:	01ffffc4 	movi	r7,-1
  104a30:	00000406 	br	104a44 <memcmp+0x3c>
  104a34:	20800003 	ldbu	r2,0(r4)
  104a38:	28c00003 	ldbu	r3,0(r5)
  104a3c:	31bfffc4 	addi	r6,r6,-1
  104a40:	10c00e1e 	bne	r2,r3,104a7c <memcmp+0x74>
  104a44:	21000044 	addi	r4,r4,1
  104a48:	29400044 	addi	r5,r5,1
  104a4c:	31fff91e 	bne	r6,r7,104a34 <_gp+0xffefc23c>
  104a50:	0005883a 	mov	r2,zero
  104a54:	f800283a 	ret
  104a58:	20c00017 	ldw	r3,0(r4)
  104a5c:	28800017 	ldw	r2,0(r5)
  104a60:	18bfee1e 	bne	r3,r2,104a1c <_gp+0xffefc224>
  104a64:	31bfff04 	addi	r6,r6,-4
  104a68:	21000104 	addi	r4,r4,4
  104a6c:	29400104 	addi	r5,r5,4
  104a70:	39bff936 	bltu	r7,r6,104a58 <_gp+0xffefc260>
  104a74:	303fe91e 	bne	r6,zero,104a1c <_gp+0xffefc224>
  104a78:	003ff506 	br	104a50 <_gp+0xffefc258>
  104a7c:	10c5c83a 	sub	r2,r2,r3
  104a80:	f800283a 	ret

00104a84 <strlen>:
  104a84:	208000cc 	andi	r2,r4,3
  104a88:	10002026 	beq	r2,zero,104b0c <strlen+0x88>
  104a8c:	20800007 	ldb	r2,0(r4)
  104a90:	10002026 	beq	r2,zero,104b14 <strlen+0x90>
  104a94:	2005883a 	mov	r2,r4
  104a98:	00000206 	br	104aa4 <strlen+0x20>
  104a9c:	10c00007 	ldb	r3,0(r2)
  104aa0:	18001826 	beq	r3,zero,104b04 <strlen+0x80>
  104aa4:	10800044 	addi	r2,r2,1
  104aa8:	10c000cc 	andi	r3,r2,3
  104aac:	183ffb1e 	bne	r3,zero,104a9c <_gp+0xffefc2a4>
  104ab0:	10c00017 	ldw	r3,0(r2)
  104ab4:	01ffbff4 	movhi	r7,65279
  104ab8:	39ffbfc4 	addi	r7,r7,-257
  104abc:	00ca303a 	nor	r5,zero,r3
  104ac0:	01a02074 	movhi	r6,32897
  104ac4:	19c7883a 	add	r3,r3,r7
  104ac8:	31a02004 	addi	r6,r6,-32640
  104acc:	1946703a 	and	r3,r3,r5
  104ad0:	1986703a 	and	r3,r3,r6
  104ad4:	1800091e 	bne	r3,zero,104afc <strlen+0x78>
  104ad8:	10800104 	addi	r2,r2,4
  104adc:	10c00017 	ldw	r3,0(r2)
  104ae0:	19cb883a 	add	r5,r3,r7
  104ae4:	00c6303a 	nor	r3,zero,r3
  104ae8:	28c6703a 	and	r3,r5,r3
  104aec:	1986703a 	and	r3,r3,r6
  104af0:	183ff926 	beq	r3,zero,104ad8 <_gp+0xffefc2e0>
  104af4:	00000106 	br	104afc <strlen+0x78>
  104af8:	10800044 	addi	r2,r2,1
  104afc:	10c00007 	ldb	r3,0(r2)
  104b00:	183ffd1e 	bne	r3,zero,104af8 <_gp+0xffefc300>
  104b04:	1105c83a 	sub	r2,r2,r4
  104b08:	f800283a 	ret
  104b0c:	2005883a 	mov	r2,r4
  104b10:	003fe706 	br	104ab0 <_gp+0xffefc2b8>
  104b14:	0005883a 	mov	r2,zero
  104b18:	f800283a 	ret

00104b1c <__register_exitproc>:
  104b1c:	defffa04 	addi	sp,sp,-24
  104b20:	dc000315 	stw	r16,12(sp)
  104b24:	04000834 	movhi	r16,32
  104b28:	84020f04 	addi	r16,r16,2108
  104b2c:	80c00017 	ldw	r3,0(r16)
  104b30:	dc400415 	stw	r17,16(sp)
  104b34:	dfc00515 	stw	ra,20(sp)
  104b38:	18805217 	ldw	r2,328(r3)
  104b3c:	2023883a 	mov	r17,r4
  104b40:	10003726 	beq	r2,zero,104c20 <__register_exitproc+0x104>
  104b44:	10c00117 	ldw	r3,4(r2)
  104b48:	010007c4 	movi	r4,31
  104b4c:	20c00e16 	blt	r4,r3,104b88 <__register_exitproc+0x6c>
  104b50:	1a000044 	addi	r8,r3,1
  104b54:	8800221e 	bne	r17,zero,104be0 <__register_exitproc+0xc4>
  104b58:	18c00084 	addi	r3,r3,2
  104b5c:	18c7883a 	add	r3,r3,r3
  104b60:	18c7883a 	add	r3,r3,r3
  104b64:	12000115 	stw	r8,4(r2)
  104b68:	10c7883a 	add	r3,r2,r3
  104b6c:	19400015 	stw	r5,0(r3)
  104b70:	0005883a 	mov	r2,zero
  104b74:	dfc00517 	ldw	ra,20(sp)
  104b78:	dc400417 	ldw	r17,16(sp)
  104b7c:	dc000317 	ldw	r16,12(sp)
  104b80:	dec00604 	addi	sp,sp,24
  104b84:	f800283a 	ret
  104b88:	00800034 	movhi	r2,0
  104b8c:	10800004 	addi	r2,r2,0
  104b90:	10002626 	beq	r2,zero,104c2c <__register_exitproc+0x110>
  104b94:	01006404 	movi	r4,400
  104b98:	d9400015 	stw	r5,0(sp)
  104b9c:	d9800115 	stw	r6,4(sp)
  104ba0:	d9c00215 	stw	r7,8(sp)
  104ba4:	00000000 	call	0 <__alt_mem_onchip_flash_0_data-0x100000>
  104ba8:	d9400017 	ldw	r5,0(sp)
  104bac:	d9800117 	ldw	r6,4(sp)
  104bb0:	d9c00217 	ldw	r7,8(sp)
  104bb4:	10001d26 	beq	r2,zero,104c2c <__register_exitproc+0x110>
  104bb8:	81000017 	ldw	r4,0(r16)
  104bbc:	10000115 	stw	zero,4(r2)
  104bc0:	02000044 	movi	r8,1
  104bc4:	22405217 	ldw	r9,328(r4)
  104bc8:	0007883a 	mov	r3,zero
  104bcc:	12400015 	stw	r9,0(r2)
  104bd0:	20805215 	stw	r2,328(r4)
  104bd4:	10006215 	stw	zero,392(r2)
  104bd8:	10006315 	stw	zero,396(r2)
  104bdc:	883fde26 	beq	r17,zero,104b58 <_gp+0xffefc360>
  104be0:	18c9883a 	add	r4,r3,r3
  104be4:	2109883a 	add	r4,r4,r4
  104be8:	1109883a 	add	r4,r2,r4
  104bec:	21802215 	stw	r6,136(r4)
  104bf0:	01800044 	movi	r6,1
  104bf4:	12406217 	ldw	r9,392(r2)
  104bf8:	30cc983a 	sll	r6,r6,r3
  104bfc:	4992b03a 	or	r9,r9,r6
  104c00:	12406215 	stw	r9,392(r2)
  104c04:	21c04215 	stw	r7,264(r4)
  104c08:	01000084 	movi	r4,2
  104c0c:	893fd21e 	bne	r17,r4,104b58 <_gp+0xffefc360>
  104c10:	11006317 	ldw	r4,396(r2)
  104c14:	218cb03a 	or	r6,r4,r6
  104c18:	11806315 	stw	r6,396(r2)
  104c1c:	003fce06 	br	104b58 <_gp+0xffefc360>
  104c20:	18805304 	addi	r2,r3,332
  104c24:	18805215 	stw	r2,328(r3)
  104c28:	003fc606 	br	104b44 <_gp+0xffefc34c>
  104c2c:	00bfffc4 	movi	r2,-1
  104c30:	003fd006 	br	104b74 <_gp+0xffefc37c>

00104c34 <__call_exitprocs>:
  104c34:	defff504 	addi	sp,sp,-44
  104c38:	df000915 	stw	fp,36(sp)
  104c3c:	dd400615 	stw	r21,24(sp)
  104c40:	dc800315 	stw	r18,12(sp)
  104c44:	dfc00a15 	stw	ra,40(sp)
  104c48:	ddc00815 	stw	r23,32(sp)
  104c4c:	dd800715 	stw	r22,28(sp)
  104c50:	dd000515 	stw	r20,20(sp)
  104c54:	dcc00415 	stw	r19,16(sp)
  104c58:	dc400215 	stw	r17,8(sp)
  104c5c:	dc000115 	stw	r16,4(sp)
  104c60:	d9000015 	stw	r4,0(sp)
  104c64:	2839883a 	mov	fp,r5
  104c68:	04800044 	movi	r18,1
  104c6c:	057fffc4 	movi	r21,-1
  104c70:	00800834 	movhi	r2,32
  104c74:	10820f04 	addi	r2,r2,2108
  104c78:	12000017 	ldw	r8,0(r2)
  104c7c:	45005217 	ldw	r20,328(r8)
  104c80:	44c05204 	addi	r19,r8,328
  104c84:	a0001c26 	beq	r20,zero,104cf8 <__call_exitprocs+0xc4>
  104c88:	a0800117 	ldw	r2,4(r20)
  104c8c:	15ffffc4 	addi	r23,r2,-1
  104c90:	b8000d16 	blt	r23,zero,104cc8 <__call_exitprocs+0x94>
  104c94:	14000044 	addi	r16,r2,1
  104c98:	8421883a 	add	r16,r16,r16
  104c9c:	8421883a 	add	r16,r16,r16
  104ca0:	84402004 	addi	r17,r16,128
  104ca4:	a463883a 	add	r17,r20,r17
  104ca8:	a421883a 	add	r16,r20,r16
  104cac:	e0001e26 	beq	fp,zero,104d28 <__call_exitprocs+0xf4>
  104cb0:	80804017 	ldw	r2,256(r16)
  104cb4:	e0801c26 	beq	fp,r2,104d28 <__call_exitprocs+0xf4>
  104cb8:	bdffffc4 	addi	r23,r23,-1
  104cbc:	843fff04 	addi	r16,r16,-4
  104cc0:	8c7fff04 	addi	r17,r17,-4
  104cc4:	bd7ff91e 	bne	r23,r21,104cac <_gp+0xffefc4b4>
  104cc8:	00800034 	movhi	r2,0
  104ccc:	10800004 	addi	r2,r2,0
  104cd0:	10000926 	beq	r2,zero,104cf8 <__call_exitprocs+0xc4>
  104cd4:	a0800117 	ldw	r2,4(r20)
  104cd8:	1000301e 	bne	r2,zero,104d9c <__call_exitprocs+0x168>
  104cdc:	a0800017 	ldw	r2,0(r20)
  104ce0:	10003226 	beq	r2,zero,104dac <__call_exitprocs+0x178>
  104ce4:	a009883a 	mov	r4,r20
  104ce8:	98800015 	stw	r2,0(r19)
  104cec:	00000000 	call	0 <__alt_mem_onchip_flash_0_data-0x100000>
  104cf0:	9d000017 	ldw	r20,0(r19)
  104cf4:	a03fe41e 	bne	r20,zero,104c88 <_gp+0xffefc490>
  104cf8:	dfc00a17 	ldw	ra,40(sp)
  104cfc:	df000917 	ldw	fp,36(sp)
  104d00:	ddc00817 	ldw	r23,32(sp)
  104d04:	dd800717 	ldw	r22,28(sp)
  104d08:	dd400617 	ldw	r21,24(sp)
  104d0c:	dd000517 	ldw	r20,20(sp)
  104d10:	dcc00417 	ldw	r19,16(sp)
  104d14:	dc800317 	ldw	r18,12(sp)
  104d18:	dc400217 	ldw	r17,8(sp)
  104d1c:	dc000117 	ldw	r16,4(sp)
  104d20:	dec00b04 	addi	sp,sp,44
  104d24:	f800283a 	ret
  104d28:	a0800117 	ldw	r2,4(r20)
  104d2c:	80c00017 	ldw	r3,0(r16)
  104d30:	10bfffc4 	addi	r2,r2,-1
  104d34:	15c01426 	beq	r2,r23,104d88 <__call_exitprocs+0x154>
  104d38:	80000015 	stw	zero,0(r16)
  104d3c:	183fde26 	beq	r3,zero,104cb8 <_gp+0xffefc4c0>
  104d40:	95c8983a 	sll	r4,r18,r23
  104d44:	a0806217 	ldw	r2,392(r20)
  104d48:	a5800117 	ldw	r22,4(r20)
  104d4c:	2084703a 	and	r2,r4,r2
  104d50:	10000b26 	beq	r2,zero,104d80 <__call_exitprocs+0x14c>
  104d54:	a0806317 	ldw	r2,396(r20)
  104d58:	2088703a 	and	r4,r4,r2
  104d5c:	20000c1e 	bne	r4,zero,104d90 <__call_exitprocs+0x15c>
  104d60:	89400017 	ldw	r5,0(r17)
  104d64:	d9000017 	ldw	r4,0(sp)
  104d68:	183ee83a 	callr	r3
  104d6c:	a0800117 	ldw	r2,4(r20)
  104d70:	15bfbf1e 	bne	r2,r22,104c70 <_gp+0xffefc478>
  104d74:	98800017 	ldw	r2,0(r19)
  104d78:	153fcf26 	beq	r2,r20,104cb8 <_gp+0xffefc4c0>
  104d7c:	003fbc06 	br	104c70 <_gp+0xffefc478>
  104d80:	183ee83a 	callr	r3
  104d84:	003ff906 	br	104d6c <_gp+0xffefc574>
  104d88:	a5c00115 	stw	r23,4(r20)
  104d8c:	003feb06 	br	104d3c <_gp+0xffefc544>
  104d90:	89000017 	ldw	r4,0(r17)
  104d94:	183ee83a 	callr	r3
  104d98:	003ff406 	br	104d6c <_gp+0xffefc574>
  104d9c:	a0800017 	ldw	r2,0(r20)
  104da0:	a027883a 	mov	r19,r20
  104da4:	1029883a 	mov	r20,r2
  104da8:	003fb606 	br	104c84 <_gp+0xffefc48c>
  104dac:	0005883a 	mov	r2,zero
  104db0:	003ffb06 	br	104da0 <_gp+0xffefc5a8>

00104db4 <_exit>:
  104db4:	defffd04 	addi	sp,sp,-12
  104db8:	df000215 	stw	fp,8(sp)
  104dbc:	df000204 	addi	fp,sp,8
  104dc0:	e13fff15 	stw	r4,-4(fp)
  104dc4:	0001883a 	nop
  104dc8:	e0bfff17 	ldw	r2,-4(fp)
  104dcc:	e0bffe15 	stw	r2,-8(fp)
  104dd0:	e0bffe17 	ldw	r2,-8(fp)
  104dd4:	10000226 	beq	r2,zero,104de0 <_exit+0x2c>
  104dd8:	002af070 	cmpltui	zero,zero,43969
  104ddc:	00000106 	br	104de4 <_exit+0x30>
  104de0:	002af0b0 	cmpltui	zero,zero,43970
  104de4:	003fff06 	br	104de4 <_gp+0xffefc5ec>
